(dp1
S'cv_endtime'
p2
(lp3
F1399987219.817481
aF1399990442.3420739
aF1400000717.7488999
asS'folds'
p4
I1
sS'cv_starttime'
p5
(lp6
F1399978878.68929
aF1399987219.9103279
aF1399990442.541235
aF1400000717.7826941
asS'endtime'
p7
(lp8
sS'optimizer'
p9
S'/home/feurerm/HPOlib/Software/HPOlib/optimizers/tpe/random_hyperopt_august2013_mod'
p10
sS'optimizer_time'
p11
(lp12
sS'instance_order'
p13
(lp14
(I0
I0
tp15
a(I1
I0
tp16
a(I2
I0
tp17
a(I3
I0
tp18
asS'max_wallclock_time'
p19
S''
sS'title'
p20
NsS'trials'
p21
(lp22
(dp23
S'status'
p24
I3
sS'std'
p25
cnumpy.core.multiarray
scalar
p26
(cnumpy
dtype
p27
(S'f8'
I0
I1
tRp28
(I3
S'<'
NNNI-1
I-1
I0
tbS'\x00\x00\x00\x00\x00\x00\x00\x00'
tRp29
sS'instance_durations'
p30
cnumpy.core.multiarray
_reconstruct
p31
(cnumpy
ndarray
p32
(I0
tS'b'
tRp33
(I1
(I1
tg27
(S'f8'
I0
I1
tRp34
(I3
S'<'
NNNI-1
I-1
I0
tbI00
S'\\\x8f\xc2\xf5HJ\xc0@'
tbsS'instance_results'
p35
g31
(g32
(I0
tS'b'
tRp36
(I1
(I1
tg34
I00
S'\xc9\x8e\x8d@\xbc\xae\xd3?'
tbsS'test_error'
p37
Fnan
sS'params'
p38
ccollections
OrderedDict
p39
((lp40
(lp41
S'-max_features'
p42
aS'0.885227081664'
p43
aa(lp44
S'-min_samples_leaf'
p45
aS'5'
aa(lp46
S'-min_samples_split'
p47
aS'10'
p48
aa(lp49
S'-n_estimators'
p50
aS'12'
p51
aa(lp52
S'-n_jobs'
p53
aS'4'
aa(lp54
S'-seed'
p55
aS'66'
p56
aatRp57
sS'result'
p58
g26
(g28
S'\xc9\x8e\x8d@\xbc\xae\xd3?'
tRp59
sS'duration'
p60
g26
(g28
S'\\\x8f\xc2\xf5HJ\xc0@'
tRp61
sS'instance_status'
p62
g31
(g32
(I0
tS'b'
tRp63
(I1
(I1
tg27
(S'i8'
I0
I1
tRp64
(I3
S'<'
NNNI-1
I-1
I0
tbI00
S'\x03\x00\x00\x00\x00\x00\x00\x00'
tbsa(dp65
S'status'
p66
I3
sS'std'
p67
g26
(g28
S'\x00\x00\x00\x00\x00\x00\x00\x00'
tRp68
sS'instance_durations'
p69
g31
(g32
(I0
tS'b'
tRp70
(I1
(I1
tg27
(S'f8'
I0
I1
tRp71
(I3
S'<'
NNNI-1
I-1
I0
tbI00
S'\x00\x00\x00\x00\x80+\xa9@'
tbsS'instance_results'
p72
g31
(g32
(I0
tS'b'
tRp73
(I1
(I1
tg71
I00
S'L\x89$z\x19\xc5\xd2?'
tbsS'test_error'
p74
Fnan
sS'params'
p75
g39
((lp76
(lp77
S'-max_features'
p78
aS'0.120802196793'
p79
aa(lp80
S'-min_samples_leaf'
p81
aS'5'
aa(lp82
S'-min_samples_split'
p83
aS'3'
aa(lp84
S'-n_estimators'
p85
aS'27'
p86
aa(lp87
S'-n_jobs'
p88
aS'4'
aa(lp89
S'-seed'
p90
aS'31'
p91
aatRp92
sS'result'
p93
g26
(g28
S'L\x89$z\x19\xc5\xd2?'
tRp94
sS'duration'
p95
g26
(g28
S'\x00\x00\x00\x00\x80+\xa9@'
tRp96
sS'instance_status'
p97
g31
(g32
(I0
tS'b'
tRp98
(I1
(I1
tg27
(S'i8'
I0
I1
tRp99
(I3
S'<'
NNNI-1
I-1
I0
tbI00
S'\x03\x00\x00\x00\x00\x00\x00\x00'
tbsa(dp100
S'status'
p101
I3
sS'std'
p102
g26
(g28
S'\x00\x00\x00\x00\x00\x00\x00\x00'
tRp103
sS'instance_durations'
p104
g31
(g32
(I0
tS'b'
tRp105
(I1
(I1
tg27
(S'f8'
I0
I1
tRp106
(I3
S'<'
NNNI-1
I-1
I0
tbI00
S'ffff&\x11\xc4@'
tbsS'instance_results'
p107
g31
(g32
(I0
tS'b'
tRp108
(I1
(I1
tg106
I00
S'uX\xe1\x96\x8f\xa4\xd2?'
tbsS'instance_status'
p109
g31
(g32
(I0
tS'b'
tRp110
(I1
(I1
tg27
(S'i8'
I0
I1
tRp111
(I3
S'<'
NNNI-1
I-1
I0
tbI00
S'\x03\x00\x00\x00\x00\x00\x00\x00'
tbsS'params'
p112
g39
((lp113
(lp114
S'-max_features'
p115
aS'0.264761242244'
p116
aa(lp117
S'-min_samples_leaf'
p118
aS'6'
aa(lp119
S'-min_samples_split'
p120
aS'5'
aa(lp121
S'-n_estimators'
p122
aS'47'
p123
aa(lp124
S'-n_jobs'
p125
aS'4'
aa(lp126
S'-seed'
p127
aS'14'
p128
aatRp129
sS'result'
p130
g26
(g28
S'uX\xe1\x96\x8f\xa4\xd2?'
tRp131
sS'duration'
p132
g26
(g28
S'ffff&\x11\xc4@'
tRp133
sS'test_error'
p134
Fnan
sa(dp135
S'status'
p136
I2
sS'std'
p137
Fnan
sS'instance_durations'
p138
g31
(g32
(I0
tS'b'
tRp139
(I1
(I1
tg27
(S'f8'
I0
I1
tRp140
(I3
S'<'
NNNI-1
I-1
I0
tbI00
S'\x00\x00\x00\x00\x00\x00\xf8\x7f'
tbsS'instance_results'
p141
g31
(g32
(I0
tS'b'
tRp142
(I1
(I1
tg140
I00
S'\x00\x00\x00\x00\x00\x00\xf8\x7f'
tbsS'instance_status'
p143
g31
(g32
(I0
tS'b'
tRp144
(I1
(I1
tg27
(S'i8'
I0
I1
tRp145
(I3
S'<'
NNNI-1
I-1
I0
tbI00
S'\x02\x00\x00\x00\x00\x00\x00\x00'
tbsS'params'
p146
g39
((lp147
(lp148
S'-max_features'
p149
aS'0.90548029095'
p150
aa(lp151
S'-min_samples_leaf'
p152
aS'6'
aa(lp153
S'-min_samples_split'
p154
aS'1'
aa(lp155
S'-n_estimators'
p156
aS'44'
p157
aa(lp158
S'-n_jobs'
p159
aS'4'
aa(lp160
S'-seed'
p161
aS'60'
p162
aatRp163
sS'result'
p164
Fnan
sS'duration'
p165
Fnan
sS'test_error'
p166
Fnan
sasS'total_wallclock_time'
p167
F21836.619999999999
sS'experiment_name'
p168
S'cv_rank_perm_random_hyperopt_august2013_mod'
p169
sS'starttime'
p170
(lp171
F1399978877.816386
as.