(dp1
S'trials'
p2
ccopy_reg
_reconstructor
p3
(chyperopt.base
Trials
p4
c__builtin__
object
p5
NtRp6
(dp7
S'attachments'
p8
(dp9
sS'_trials'
p10
(lp11
(dp12
S'refresh_time'
p13
cdatetime
datetime
p14
(S'\x07\xde\x05\r\r\x14\x13\r\xbf\x88'
tRp15
sS'book_time'
p16
g14
(S'\x07\xde\x05\r\x0b\x01\x12\n\x7f\x80'
tRp17
sS'misc'
p18
(dp19
S'tid'
p20
I0
sS'idxs'
p21
(dp22
S'max_features'
p23
(lp24
I0
asS'min_samples_split'
p25
(lp26
I0
asS'seed'
p27
(lp28
I0
asS'n_estimators'
p29
(lp30
I0
asS'min_samples_leaf'
p31
(lp32
I0
assS'cmd'
p33
(S'domain_attachment'
p34
S'FMinIter_Domain'
p35
tp36
sS'vals'
p37
(dp38
g23
(lp39
F0.88522708166383179
asg25
(lp40
F10
asg27
(lp41
F66
asg29
(lp42
F12
asg31
(lp43
F5
assS'workdir'
p44
NssS'state'
p45
I2
sg20
I0
sS'exp_key'
p46
NsS'version'
p47
I0
sS'result'
p48
(dp49
S'status'
p50
S'ok'
p51
sS'loss'
p52
F0.30753999999999998
ssS'owner'
p53
NsS'spec'
p54
Nsa(dp55
g13
g14
(S'\x07\xde\x05\r\x0e\x0e\x02\x07\xebX'
tRp56
sg16
g14
(S'\x07\xde\x05\r\r\x14\x13\r\xde\xc8'
tRp57
sg18
(dp58
g20
I1
sg21
(dp59
g23
(lp60
I1
asg25
(lp61
I1
asg27
(lp62
I1
asg29
(lp63
I1
asg31
(lp64
I1
assg33
(g34
g35
tp65
sg37
(dp66
g23
(lp67
F0.1208021967928497
asg25
(lp68
F3
asg27
(lp69
F31
asg29
(lp70
F27
asg31
(lp71
F5
assg44
Nssg45
I2
sg20
I1
sg46
Nsg47
I0
sg48
(dp72
g50
g51
sg52
F0.29327999999999999
ssg53
Nsg54
Nsa(dp73
g13
g14
(S'\x07\xde\x05\r\x11\x05\x11\x0b\xbb\xe8'
tRp74
sg16
g14
(S'\x07\xde\x05\r\x0e\x0e\x02\x08=`'
tRp75
sg18
(dp76
g20
I2
sg21
(dp77
g23
(lp78
I2
asg25
(lp79
I2
asg27
(lp80
I2
asg29
(lp81
I2
asg31
(lp82
I2
assg33
(g34
g35
tp83
sg37
(dp84
g23
(lp85
F0.26476124224355668
asg25
(lp86
F5
asg27
(lp87
F14
asg29
(lp88
F47
asg31
(lp89
F6
assg44
Nssg45
I2
sg20
I2
sg46
Nsg47
I0
sg48
(dp90
g50
g51
sg52
F0.291294
ssg53
Nsg54
NsasS'_exp_key'
p91
NsS'_dynamic_trials'
p92
(lp93
g12
ag55
ag73
asS'_ids'
p94
c__builtin__
set
p95
((lp96
I0
aI1
aI2
atRp97
sbsS'domain'
p98
g3
(chyperopt.fmin
Domain
p99
g5
NtRp100
(dp101
g33
(g34
g35
tp102
sS'name'
p103
NsS's_new_ids'
p104
g3
(chyperopt.pyll.base
Literal
p105
g5
NtRp106
(dp107
g103
S'literal'
p108
sS'pos_args'
p109
(lp110
sS'named_args'
p111
(lp112
sS'o_len'
p113
I7
sS'_obj'
p114
S'new_ids'
p115
sS'pure'
p116
I01
sbsS'vh'
p117
g3
(chyperopt.vectorize
VectorizeHelper
p118
g5
NtRp119
(dp120
S'take_memo'
p121
(dp122
g3
(chyperopt.pyll.base
Apply
p123
g5
NtRp124
(dp125
g113
Nsg116
I01
sg103
S'float'
p126
sg109
(lp127
g3
(g123
g5
NtRp128
(dp129
g113
Nsg116
I00
sg103
S'hyperopt_param'
p130
sg109
(lp131
g3
(g105
g5
NtRp132
(dp133
g103
g108
sg109
(lp134
sg111
(lp135
sg113
I4
sg114
g27
sg116
I01
sbag3
(g123
g5
NtRp136
(dp137
g113
Nsg116
I00
sg103
S'quniform'
p138
sg109
(lp139
g3
(g105
g5
NtRp140
(dp141
g103
g108
sg109
(lp142
sg111
(lp143
sg113
Nsg114
I1
sg116
I01
sbag3
(g105
g5
NtRp144
(dp145
g103
g108
sg109
(lp146
sg111
(lp147
sg113
Nsg114
I100
sg116
I01
sbag3
(g105
g5
NtRp148
(dp149
g103
g108
sg109
(lp150
sg111
(lp151
sg113
Nsg114
I1
sg116
I01
sbasg111
(lp152
(S'rng'
p153
g3
(g105
g5
NtRp154
(dp155
g103
g108
sg109
(lp156
sg111
(lp157
sg113
Nsg114
cnumpy.random
__RandomState_ctor
p158
(tRp159
(S'MT19937'
p160
cnumpy.core.multiarray
_reconstruct
p161
(cnumpy
ndarray
p162
(I0
tS'b'
tRp163
(I1
(I624
tcnumpy
dtype
p164
(S'u4'
I0
I1
tRp165
(I3
S'<'
NNNI-1
I-1
I0
tbI00
S'\t}9\x90\xe0\xe1d\x9e\xbd*\xbe\xc3\xd1\xf7\xa8I\x1c2\xe6{\xda*\xc9\xcdz\xebo\r\xdf\x16eKw\x85\x03\xe0\xaf7Y\xf9`\x92XF\xbaJ"\xf0|\xeb\x82\xea\x88\x1f\xdf\xee\xfd\x9c\x06\xa4\xce=n\xec\xf9\x88hW\xbc\xc5Y\xce\xa4\xcf\xa4\x9c\xe8\xddCF\xc7\xf6\xa2\xa3\x98\xa9\xea\xc72\x03\xe0\xe6\x1c\xd7\xb7\x8fxP\xba\xd6\xb8\xd8+\x0f\xd5\xea2\xa4q\x7f;\xf5Q\x96\xc2\x85E\x86\x80\x10x@`$\xe4&/\x967\xa0/\xb4\x8c\xdc\xa3\x15\xc0\xfe\xc4&.<\xde\x1f\xfd\x18\x1dQo!\xab\x1dmV\x83n0\xcf\x13\x8a\xbfK#P\x06{\xf9\xd51\xbdu(\x9b\xf6u\x1e"\xff\x1e+\xee\xc8\x17\x8e\x8b\xf9\xac\x1d\xe2\xa8\xb8\xcb?\x1f\xc3B`n\x10ZQ:\xdc\x19\xc6\x1e{C\xd4\x17R\xd3Q\xe5\xb9]\xfc\x93\xdd\x82\xbf\'\x03\xbch=\x84\xect\x01\xbf\xa56\x9b\xffd\x14$\xcat\xfd%\x93\x81A\x17f\xdao\xda\xe3)\x7f\x98\xf2 \x80\xf7\xaa\x14\x0fc\x13\xea\xb1c\x7f\xbc\xd9\x94\xcfO\x1cUD\xe1\\=X\xf4}p\xdb>\\VQP\x0c\xa2\xec@c\xee\xd8\xdbJ4\xa7\xdb\n\x9b\x1fh\xd8\xac\x82\x8e\x9fx\xf0\x8a\xd64=\xc5\x8dl\xbe\x84\xe3;f\x9e\x07K##k\xa1|\xd4\xaa\xec\xd3l\x96\xc5\xb4\xb7\x8b\xf9\xa9"\xeb7\xd4\x1d\xefoS\xa6\t4\x86\xdb\xb6d\xcf\xe0d9\xfe\x97\x8c;\xf0\xb8\xf1;\xb7f\xd8\x17\xb6\xf9A\x7f\xe5\xc2_-P\xd5\xb7y\x12=\xea\xbf\xbaHt\x96\xe1C\xfe\xda\xc3E\xf2\xda\n\x14\x87\xf0\xad\xadg\xa7\xb2\xd4\x145z\'\xd4\xe2\x16L\xe9\xbf\x8b \xf9Ot\x96)\xb8\xf7\r\x98]Thc\x19\xa8!\x19\x7f\xc3\xb6\xf2\x91`\x8b\xb4\xcc\xf4:\x03\xd2\xc3\t\xb8\xde\xc67Z\r\xa1\xd4T\x86\nL)*\x06R\xe8\xccs\xcbnr\xf6\x99\\\x98\xcd\x13r\xa312\xc4\xfd\xf6\x05\xa2\x99j\x81^\xf26\x89\xd0\xbc\x97\x90\xd5G\xbci\x80q04\xe9W\x9b\x11\x90\x90\x0c\xfa\xec\x89\xf4\xf4\x10\xd5d8\xb0h:\xddb\xf21\xf7L\x82\xc8\x8a\xbb\xe1\xb9\x97\tY\xa4\xbd\x05"\xae\x1f\x86\xe1\xde#I\x95_i\xa5\xdbH\x13q#\xb0\xb72q\xce\xadh\x98r\xaf\xa6\xe7\'\xa0\x1dt&:\xe1%\xd1\x12\xef\x8dVf\xd2\x9b"\xf5\xeb5\x91fOn\xd0\xbdT\x1e\xf5\xef\x00\x81\xce!\xa6\xd8\x9b0c\xfc"\x18@#Z\x06_\xd0\xc2;\xc0X\xcc\xd4Rj=.J\xd7\x8d\xba\xeaz\xffO\x1b2\x81_8\xa2\xb7\xa6p\x16\xc7\x96\xe9f\xe8\xb6z\xf1\x13\xfc\xf9d\xfa/\xed`\x10\xc7P\x01%\x0c\xe1y?\x0bE\xa6{c\xfevCE\x8c\x7f\r\t\x8d\xbb\xcb\x95\xad\xa6\xf3n\x14\xefq:nH\xb5\x80\xaa\xfaQ\x19\xba\x01\xc2BD\x17(v\x88\x96\xb67|\x05JZ\x1cJ]\xe4\x8f\x98\xec \xa24Q}>>\xa8\xd3\xf1\xd2C\xf7\xad\xc7\xf0\xf6\xd5\xb6\x02\xa1\xc2\x14\xaf\xd6\x99\'i\xd5v\x86\xe0\xab\x1a\xec\x961\x05(\x0fzy\x04\xbd\x89\xb0\x94h\x9d\x8d\x99\xa6\x82\xe2\x87\x13\xefNo.\x1dk\xc4f08\xc2ae\xad\x85~\xc2h\xc3D\xedIr7N\xfb\xcc\x1cr\xa5C\x1b^\xa0-?\xa1\xd2\xa9\xdf\xd1\x8e\x00\xf0\x0b[\xd2\xdf\x83\xae\xd8W\x93C\xa7\x93\x8f\xb1\x80\xb7r\xdb\x99?V\x08\xe4\xd1\x1d\xd4g\xdc\x00-i\x8eO\xc8x\xe8\xdb\xfb\x8fE\xee2\x8e\'\xf3\x8b\xa5\xb6\x19?\xdex\x92{D\xf2D\xc2\x07\xbc\x00\xc2!Z\xaf\x89\x0ezG\xa9\x80\xf0\x15\xccX\x90\x95\xf9\x9b!~,\xdc \xd3M\x10:\x8e\xf3\x06\x86\xbe\xa6\x0f\x9c\xae\xdd/q\xee\xcd\x8d\x15\xec xw\xc3\xd3py\xc9\xc5\xfc<\xb6\x9bcJ=f\xa6\x08\x0f\x9b\xad\x0f..\xb9Yl\x83\xb5\xde\x97\xab\xf8\xd5\xff\xd5\x96\xc2#\n\t\x92\xcd\x16\xec\xfa\xee\xdb\xe4\xa0\xc28\xc6\xbb\x9507\xa5\xae\x84\xf0\x8f\x06\x94\x93\xa7~\xfa\xd6\xa2\x94(\xa4\xba)\xedE\xed\xea]\n\xe4\x9a\xa6\xcb\x99\x81\xe3\xa3%\xd3\x81Q\xd3G\x13\xb4\xb1z[y1H1\r\xb0Pe\xc0\x94?\xef\xd9\xbf\xd6wAo\x03\x90\x97\rU\x94\xe6\x19\xf31{\xf9\xaf\xa22\x1fi?\xfc]9Ioi\xb8fa!wm\xad\xb8#^\x90E!\xa7+(\xe3\xf0\\\xe9\x8f\xedTA[\x96?\xe9~\x9a\x1c\x0b=\xe4\xdfY\x1ct<"*\xfb\x1em\x02\xc7\xe4\xb7\xb9#\xdd\xbf\x8d\xacd\x07\x86\x90\xa0\xdb\xd8,\xaa\xbc\x9cNUZ\x83T\x1f\xc8\x10\xea:\xd7\xd1\xb3\xf6\xbb\xb7\x9c\xca\xff\xa1Q\x9a\x00E\xc9j\xde\x9d\xda\xd7"9\xb65\xdcK\xdb\xdf\x8c\x170\xe5\xbe?u\xfaL\xf2\x05?y\x1a\x02b\x98;\xb8\x1a\x9c\xa4\xceW\x05]\x99n\r\x1d\x99m\xd4\xda\x8a?\x93\xb1pi\xf0\xea\x84v\x8drO\xe0\xe1\xfbTg\xd1E\x04g\xda@\x10\xfd\xedy\xe7\xc8<3u\xe2\x9e@h\x80jy\xbb\x80z8S_P>#\xcf\x1bN#\xbbg\xf0\xb7\xd8\xd3\x02)\xf2\xed\xf7\x10W:\xa3\x16+\x89\xd0\xbdz\xe6C\xad\xed\x95gX\x96I\xb4\xa3\xb1w\xe2\x1c\xf6\x83>\xba-\x02\xa4\xd1I\xc0\xec2lo+\xdd\xee%\x19\xf8\x08O\xdb\x14\x1d:\x9f\xde\x85=\x82\xc0\x8a3\x87W\xbe\xac\x99\xe2\xd64\xd7\x91\xb9\xee\xbb\x00\xd3\x97\xb3,f\x86\\\x8e\xe0\xf0\x04K\xcd\x97\x8d5f\xd3g\x8d\x1e\xb2x$2\xbfM\xb1\xcf5\xabuS.\xdc\x1d\xf0\xcd\x03\xdc\xc0\xc6\xfb\xb0\xcc\xfa}r$\xd6\xc9~\x99\x12K\x99]\\\xa2\xe3\xcd,)\xb5\x92OJ\xb19\x10m\xa8\xcd0N\xba\x8e\x94\xd7m\xeaS\xef\xfaY\x86\xd7Wk\xbeu\n\x89\xf7P\x18\xef`\x00\xbb\xe5j\xf1\x11\x98\xf3P\xd1\x96\x7f1\x15\x18\xfd\x0c#}\xfe`\xe1\x99B;\xe5\xef\xc6\xe3P\xf1&\xccf\x0eS*\xa3\x03\x93\x08\xf5W>\xd9\xa7\x16\xb2\xf1\xb4f\x7f\x89r,\x87\x8cH\x1dr\x90\xa3\xcas\x94vv^\xca&\xa6FG\x0c\x92\x90\xe1\x05\x11\x9dC\x9a\x99\r\x8b\x11\x19]\x174G\x00\xcf\x1f\xffT\xe2\x90\xf6t\xc1\x195(ua\x12\xc0\xe2\x1d\xaf\x8c)s\xfc\xde\xaf\xab\x92\xe4\x1c?\xb5Z\xc0UI\x9cE\x81\xde\xf0\x83NL\r\xc5\xf1\x15\x03\x9f\xbc\xe0\xd4\xe1A\xdat1\xe5\x0e\x1e]]\xd4\xa4}\xf9=l\x9e(~\x83\xb6\xad\xe4]*h\xfac,\xa0\x89\xa397\x06[\xd5 (\x18u\x80\xec$\n\x16\x12\xc7\xf9m\xe9Q\x8b\xd8\x04I\xbd\xe5\x91\x01\x12\xb6\x7f\x1d\x93P \xa6\xd3IN\xa0\x88H9/\x1c\x8dA\xb9&\xda[\xc9\x93A}H\xe1\xb3\x8e#\xc4\x13\xcc<\xfb\xa0#\x01\x9c\x00:5\xa8\xbeX\xc5\x95\x15\x86\x06\x07\xe7E\x06\xe7\x97\xb5\xd07\xc6\xeb\xfb\x11\xb8\xd1\xd3b=\x94\'\xce\xf1\x1e\xd1\x11\xd2\xfc\xedm\xfe\x7f\xa2myT\x05\xe1-\x04\xa7\\\x99f\x14\xb1\x9bC\xf1\x92$}\x9a\xbc\xea>\x9fC\x0c\x99\xb9\xa5\x11\x96\x84\x0f\xf8\x90y\x1fS\x06\xd0=\xb7\xae*\xe3\x7f\xdd\x86v\xe8\xcf\xf2\x91\xcf]\x14}?\xc1<Aq\xc6l\x80\xbd\xf4\xeaU\xce\x0bt%\xf5\xbc)\x99\x98\x17)t7\xae6\x15y \x8f!\x1b\xa1\xa9f2\xe2\xc9\x1b\x1a\xf6\xb1\x0b\tU\xeb\x8as\xc0\x84\x80\x91\xebp\x96MQ\x82J\xa7@\xa4*C\x9az\xc2\xe7\xaa\xab\xe9\xa9S\x827J\x881\xc8\xa7 6\x17\x13+tA(-\x8f\x95A\x989\xdeUU\x1c\x80aS\xdb\xebi\xfe\xd7\xd9\x02\r\xf2\xfa\xec\xbf\xbc\xac\xa0\x94\x8c\x1d\x9f\xb3|WCs0\x19\x04>\xab\x07\xfb\xbfA\x0b\xb7\xcb\x05\xb7\x97\x036\xc6\xe0{\x0bc5\xf4\xab/<}\x1fA\xd4a\x15B\x92\x908\xe7<\xee|\xe3\x15\x8d\xa0\xd4\xdb\xf8\x16\x0e\xc2\xb2\x9bs{\xa2\x05\xc4\xb6\x95&\x86\xae\xaa4\x9c\x0c\x8e\x15\x18Q`C\xe3b{\xe2\x17\xc6\xa2\xf27Tg\xe4\xa8\xf5~\xe3\xb26\x1fu\xc8\x82\xe6b3\xe1b\x07\xcc\x19j|\xb8\xab\x8b\xcaA3\xa6\x8a\xd8\xd5\x1e\x10\xadV\x91\xf3e{\x9cP\x1b\xc4\xf0\xe9\x12LF\xb8\xdc\x98\x8d\xa3=|_H\xa3$\xef\xd6Y((\\;\x06)\x94\x8c\x96\x98\xf2\xa77[\'\x8cM\x89\x01\x8dU2\x10\xf7y\xf4\x1e\xcc@\xfdW\xf4Q#\x81\xc2\xf1`\x83\xd4\xae\xcb\xceF?\xcbq\x08X;\x90\x91\xb1\x1cA\n\xbaD\\\x9e\xbd@\xdb\x15\xd1V\xfe\xa7\xa0\xf6\nL\xea\x1c\xce\x97D\xb5\x0f\xb8\x07M\x9d\xfc\x90d\x0b\xa5|\x1eIh\xf968\xf93\x80p\x00C\xa3\xa6\xdcGj\x0b\xe7\xfb\x1dY\xe9\xc6\x9d+\xc39\x18\xbd"\x1b\x80#\xe2|\x90\x1a\xd8(\xffl\xaf\x06\xc7d\x04f\x88\xe5\xb6S\x17\xa7\xb3\xe9\x91\xb4\xca\x12sy\xbaP\xb8$w2\x01\xa1\x8f\x10\xbfg\xb1o\xf0\xcd\xab\xed\x03\xe8\xdb/u}\xd013\x1c)\x17\x80>\x97\x82?\xf6,\x80\xae\xe0\xdb\x1e\xbc\xcd\xf4\xde\x83pa i\xd0Sc7\xda\xec\xc8\x0e\x15\x10n\xa3\xe4\xb5\xc6\x91`!\x0e\x96\x15j\xc7k\x82\xd8GQ\xea$\x89X\xb3\xc43 \xb3\xd0\xc09d~\xc0\xa1{/\xa9=B\xe6\x9b\xe0\xe1G&\xe5\xd4\x0e\x92\xe0H`\xf9\xa0\x16\x8f\'\x88g9&\x9e\xf6<\x84\xf8W(\xceN\xc4\x95\xcf\xd2\xf6I\'\xfd`\xaf3\xc6\xd8\xd5\xf9\x83\xfc\x1a`\xbdB\x00\xa4\xa3\xa31MFZ\xd5\xa4d\xee\xea>\x08U5\x876\'\xb1\x08\x12\xd1\x95\xe0\xe1k\xf2LCt\xc5\xbd\x03\xe2\x17S\xb2m\x9a\xfc\x03!5\xf7\xb6$\xe3\x9eu$\x8b7o\xff\xc3\x89!\x9c\xad\xca\xcb"\x80b\xa1@\x18O!\xa3\xa3\x98<\xf5Vtf,\xf9\x94R\xab\xa56\xa4\xf0\xb3|\x02\xd5K~\x0f\x9aI7R^\xa9\x80W^x\xee\x98\x91\nON\xd4\xe2*;\x8f,\xda\xd0\xe4\x12'
tbI10
I0
F0
tbsg116
I01
sbtp166
asbasg111
(lp167
sbasg111
(lp168
sb(lp169
g3
(g123
g5
NtRp170
(dp171
g113
Nsg116
I01
sg103
S'idxs_take'
p172
sg109
(lp173
g3
(g123
g5
NtRp174
(dp175
g113
Nsg116
I01
sg103
S'array_union'
p176
sg109
(lp177
g3
(g123
g5
NtRp178
(dp179
g113
Nsg116
I01
sg103
g176
sg109
(lp180
g3
(g123
g5
NtRp181
(dp182
g113
Nsg116
I01
sg103
g176
sg109
(lp183
g106
asg111
(lp184
sbasg111
(lp185
sbasg111
(lp186
sbag3
(g123
g5
NtRp187
(dp188
g113
Nsg116
I01
sg103
S'idxs_map'
p189
sg109
(lp190
g174
ag3
(g105
g5
NtRp191
(dp192
g103
g108
sg109
(lp193
sg111
(lp194
sg113
I5
sg114
g126
sg116
I01
sbag3
(g123
g5
NtRp195
(dp196
g113
Nsg116
I00
sg103
g109
sg109
(lp197
g174
ag3
(g123
g5
NtRp198
(dp199
g113
Nsg116
I01
sg103
g172
sg109
(lp200
g3
(g123
g5
NtRp201
(dp202
g113
Nsg116
I01
sg103
g176
sg109
(lp203
g174
asg111
(lp204
sbag3
(g123
g5
NtRp205
(dp206
g113
Nsg116
I00
sg103
g138
sg109
(lp207
g140
ag144
ag148
asg111
(lp208
(lp209
S'size'
p210
ag3
(g123
g5
NtRp211
(dp212
g113
Nsg116
I01
sg103
S'len'
p213
sg109
(lp214
g201
asg111
(lp215
sbaa(g153
g3
(g105
g5
NtRp216
(dp217
g103
g108
sg109
(lp218
sg111
(lp219
sg113
Nsg114
g159
sg116
I01
sbtp220
asbag174
asg111
(lp221
sbasg111
(lp222
sbasg111
(lp223
sbag178
asg111
(lp224
sbasg3
(g123
g5
NtRp225
(dp226
g113
Nsg116
I01
sg103
S'int'
p227
sg109
(lp228
g124
asg111
(lp229
sb(lp230
g3
(g123
g5
NtRp231
(dp232
g113
Nsg116
I01
sg103
g172
sg109
(lp233
g178
ag3
(g123
g5
NtRp234
(dp235
g113
Nsg116
I01
sg103
g189
sg109
(lp236
g178
ag3
(g105
g5
NtRp237
(dp238
g103
g108
sg109
(lp239
sg111
(lp240
sg113
I3
sg114
g227
sg116
I01
sbag3
(g123
g5
NtRp241
(dp242
g113
Nsg116
I00
sg103
g109
sg109
(lp243
g178
ag170
asg111
(lp244
sbasg111
(lp245
sbag181
asg111
(lp246
sbasg3
(g123
g5
NtRp247
(dp248
g113
Nsg116
I01
sg103
g126
sg109
(lp249
g3
(g123
g5
NtRp250
(dp251
g113
Nsg116
I00
sg103
g130
sg109
(lp252
g3
(g105
g5
NtRp253
(dp254
g103
g108
sg109
(lp255
sg111
(lp256
sg113
I12
sg114
g29
sg116
I01
sbag3
(g123
g5
NtRp257
(dp258
g113
Nsg116
I00
sg103
g138
sg109
(lp259
g3
(g105
g5
NtRp260
(dp261
g103
g108
sg109
(lp262
sg111
(lp263
sg113
Nsg114
I1
sg116
I01
sbag3
(g105
g5
NtRp264
(dp265
g103
g108
sg109
(lp266
sg111
(lp267
sg113
Nsg114
I100
sg116
I01
sbag3
(g105
g5
NtRp268
(dp269
g103
g108
sg109
(lp270
sg111
(lp271
sg113
Nsg114
I1
sg116
I01
sbasg111
(lp272
(g153
g154
tp273
asbasg111
(lp274
sbasg111
(lp275
sb(lp276
g3
(g123
g5
NtRp277
(dp278
g113
Nsg116
I01
sg103
g172
sg109
(lp279
g3
(g123
g5
NtRp280
(dp281
g113
Nsg116
I01
sg103
g176
sg109
(lp282
g3
(g123
g5
NtRp283
(dp284
g113
Nsg116
I01
sg103
g176
sg109
(lp285
g181
asg111
(lp286
sbasg111
(lp287
sbag3
(g123
g5
NtRp288
(dp289
g113
Nsg116
I01
sg103
g189
sg109
(lp290
g280
ag3
(g105
g5
NtRp291
(dp292
g103
g108
sg109
(lp293
sg111
(lp294
sg113
I5
sg114
g126
sg116
I01
sbag3
(g123
g5
NtRp295
(dp296
g113
Nsg116
I00
sg103
g109
sg109
(lp297
g280
ag3
(g123
g5
NtRp298
(dp299
g113
Nsg116
I01
sg103
g172
sg109
(lp300
g3
(g123
g5
NtRp301
(dp302
g113
Nsg116
I01
sg103
g176
sg109
(lp303
g280
asg111
(lp304
sbag3
(g123
g5
NtRp305
(dp306
g113
Nsg116
I00
sg103
g138
sg109
(lp307
g260
ag264
ag268
asg111
(lp308
(lp309
g210
ag3
(g123
g5
NtRp310
(dp311
g113
Nsg116
I01
sg103
g213
sg109
(lp312
g301
asg111
(lp313
sbaa(g153
g216
tp314
asbag280
asg111
(lp315
sbasg111
(lp316
sbasg111
(lp317
sbag283
asg111
(lp318
sbasg3
(g123
g5
NtRp319
(dp320
g113
Nsg116
I01
sg103
g227
sg109
(lp321
g247
asg111
(lp322
sb(lp323
g3
(g123
g5
NtRp324
(dp325
g113
Nsg116
I01
sg103
g172
sg109
(lp326
g283
ag3
(g123
g5
NtRp327
(dp328
g113
Nsg116
I01
sg103
g189
sg109
(lp329
g283
ag3
(g105
g5
NtRp330
(dp331
g103
g108
sg109
(lp332
sg111
(lp333
sg113
I3
sg114
g227
sg116
I01
sbag3
(g123
g5
NtRp334
(dp335
g113
Nsg116
I00
sg103
g109
sg109
(lp336
g283
ag277
asg111
(lp337
sbasg111
(lp338
sbag181
asg111
(lp339
sbasg140
(lp340
g3
(g123
g5
NtRp341
(dp342
g113
Nsg116
I01
sg103
g172
sg109
(lp343
g3
(g123
g5
NtRp344
(dp345
g113
Nsg116
I01
sg103
g176
sg109
(lp346
g106
asg111
(lp347
sbag3
(g123
g5
NtRp348
(dp349
g113
Nsg116
I01
sg103
S'asarray'
p350
sg109
(lp351
g3
(g123
g5
NtRp352
(dp353
g113
Nsg116
I01
sg103
S'repeat'
p354
sg109
(lp355
g3
(g123
g5
NtRp356
(dp357
g113
Nsg116
I01
sg103
g213
sg109
(lp358
g106
asg111
(lp359
sbag140
asg111
(lp360
sbasg111
(lp361
sbag201
asg111
(lp362
sbasg3
(g123
g5
NtRp363
(dp364
g113
Nsg116
I00
sg103
S'uniform'
p365
sg109
(lp366
g3
(g105
g5
NtRp367
(dp368
g103
g108
sg109
(lp369
sg111
(lp370
sg113
Nsg114
F0.10000000000000001
sg116
I01
sbag3
(g105
g5
NtRp371
(dp372
g103
g108
sg109
(lp373
sg111
(lp374
sg113
Nsg114
I1
sg116
I01
sbasg111
(lp375
(g153
g154
tp376
asb(lp377
g3
(g123
g5
NtRp378
(dp379
g113
Nsg116
I01
sg103
g172
sg109
(lp380
g3
(g123
g5
NtRp381
(dp382
g113
Nsg116
I01
sg103
g176
sg109
(lp383
g3
(g123
g5
NtRp384
(dp385
g113
Nsg116
I01
sg103
g176
sg109
(lp386
g181
asg111
(lp387
sbasg111
(lp388
sbag3
(g123
g5
NtRp389
(dp390
g113
Nsg116
I00
sg103
g365
sg109
(lp391
g367
ag371
asg111
(lp392
(lp393
g210
ag3
(g123
g5
NtRp394
(dp395
g113
Nsg116
I01
sg103
g213
sg109
(lp396
g381
asg111
(lp397
sbaa(g153
g216
tp398
asbag384
asg111
(lp399
sbasg367
(lp400
g3
(g123
g5
NtRp401
(dp402
g113
Nsg116
I01
sg103
g172
sg109
(lp403
g3
(g123
g5
NtRp404
(dp405
g113
Nsg116
I01
sg103
g176
sg109
(lp406
g106
asg111
(lp407
sbag3
(g123
g5
NtRp408
(dp409
g113
Nsg116
I01
sg103
g350
sg109
(lp410
g3
(g123
g5
NtRp411
(dp412
g113
Nsg116
I01
sg103
g354
sg109
(lp413
g3
(g123
g5
NtRp414
(dp415
g113
Nsg116
I01
sg103
g213
sg109
(lp416
g106
asg111
(lp417
sbag367
asg111
(lp418
sbasg111
(lp419
sbag381
asg111
(lp420
sbasg371
(lp421
g3
(g123
g5
NtRp422
(dp423
g113
Nsg116
I01
sg103
g172
sg109
(lp424
g3
(g123
g5
NtRp425
(dp426
g113
Nsg116
I01
sg103
g176
sg109
(lp427
g106
asg111
(lp428
sbag3
(g123
g5
NtRp429
(dp430
g113
Nsg116
I01
sg103
g350
sg109
(lp431
g3
(g123
g5
NtRp432
(dp433
g113
Nsg116
I01
sg103
g354
sg109
(lp434
g3
(g123
g5
NtRp435
(dp436
g113
Nsg116
I01
sg103
g213
sg109
(lp437
g106
asg111
(lp438
sbag371
asg111
(lp439
sbasg111
(lp440
sbag381
asg111
(lp441
sbasg3
(g123
g5
NtRp442
(dp443
g113
Nsg116
I01
sg103
g126
sg109
(lp444
g3
(g123
g5
NtRp445
(dp446
g113
Nsg116
I00
sg103
g130
sg109
(lp447
g3
(g105
g5
NtRp448
(dp449
g103
g108
sg109
(lp450
sg111
(lp451
sg113
I12
sg114
g23
sg116
I01
sbag363
asg111
(lp452
sbasg111
(lp453
sb(lp454
g3
(g123
g5
NtRp455
(dp456
g113
Nsg116
I01
sg103
g172
sg109
(lp457
g384
ag3
(g123
g5
NtRp458
(dp459
g113
Nsg116
I01
sg103
g189
sg109
(lp460
g384
ag3
(g105
g5
NtRp461
(dp462
g103
g108
sg109
(lp463
sg111
(lp464
sg113
I5
sg114
g126
sg116
I01
sbag3
(g123
g5
NtRp465
(dp466
g113
Nsg116
I00
sg103
g109
sg109
(lp467
g384
ag378
asg111
(lp468
sbasg111
(lp469
sbag181
asg111
(lp470
sbasg3
(g123
g5
NtRp471
(dp472
g113
Nsg116
I00
sg103
g138
sg109
(lp473
g3
(g105
g5
NtRp474
(dp475
g103
g108
sg109
(lp476
sg111
(lp477
sg113
Nsg114
I1
sg116
I01
sbag3
(g105
g5
NtRp478
(dp479
g103
g108
sg109
(lp480
sg111
(lp481
sg113
Nsg114
I10
sg116
I01
sbag3
(g105
g5
NtRp482
(dp483
g103
g108
sg109
(lp484
sg111
(lp485
sg113
Nsg114
I1
sg116
I01
sbasg111
(lp486
(g153
g154
tp487
asb(lp488
g3
(g123
g5
NtRp489
(dp490
g113
Nsg116
I01
sg103
g172
sg109
(lp491
g3
(g123
g5
NtRp492
(dp493
g113
Nsg116
I01
sg103
g176
sg109
(lp494
g3
(g123
g5
NtRp495
(dp496
g113
Nsg116
I01
sg103
g176
sg109
(lp497
g3
(g123
g5
NtRp498
(dp499
g113
Nsg116
I01
sg103
g176
sg109
(lp500
g181
asg111
(lp501
sbasg111
(lp502
sbasg111
(lp503
sbag3
(g123
g5
NtRp504
(dp505
g113
Nsg116
I00
sg103
g138
sg109
(lp506
g474
ag478
ag482
asg111
(lp507
(lp508
g210
ag3
(g123
g5
NtRp509
(dp510
g113
Nsg116
I01
sg103
g213
sg109
(lp511
g492
asg111
(lp512
sbaa(g153
g216
tp513
asbag495
asg111
(lp514
sbasg474
(lp515
g3
(g123
g5
NtRp516
(dp517
g113
Nsg116
I01
sg103
g172
sg109
(lp518
g3
(g123
g5
NtRp519
(dp520
g113
Nsg116
I01
sg103
g176
sg109
(lp521
g106
asg111
(lp522
sbag3
(g123
g5
NtRp523
(dp524
g113
Nsg116
I01
sg103
g350
sg109
(lp525
g3
(g123
g5
NtRp526
(dp527
g113
Nsg116
I01
sg103
g354
sg109
(lp528
g3
(g123
g5
NtRp529
(dp530
g113
Nsg116
I01
sg103
g213
sg109
(lp531
g106
asg111
(lp532
sbag474
asg111
(lp533
sbasg111
(lp534
sbag492
asg111
(lp535
sbasg478
(lp536
g3
(g123
g5
NtRp537
(dp538
g113
Nsg116
I01
sg103
g172
sg109
(lp539
g3
(g123
g5
NtRp540
(dp541
g113
Nsg116
I01
sg103
g176
sg109
(lp542
g106
asg111
(lp543
sbag3
(g123
g5
NtRp544
(dp545
g113
Nsg116
I01
sg103
g350
sg109
(lp546
g3
(g123
g5
NtRp547
(dp548
g113
Nsg116
I01
sg103
g354
sg109
(lp549
g3
(g123
g5
NtRp550
(dp551
g113
Nsg116
I01
sg103
g213
sg109
(lp552
g106
asg111
(lp553
sbag478
asg111
(lp554
sbasg111
(lp555
sbag492
asg111
(lp556
sbasg482
(lp557
g3
(g123
g5
NtRp558
(dp559
g113
Nsg116
I01
sg103
g172
sg109
(lp560
g3
(g123
g5
NtRp561
(dp562
g113
Nsg116
I01
sg103
g176
sg109
(lp563
g106
asg111
(lp564
sbag3
(g123
g5
NtRp565
(dp566
g113
Nsg116
I01
sg103
g350
sg109
(lp567
g3
(g123
g5
NtRp568
(dp569
g113
Nsg116
I01
sg103
g354
sg109
(lp570
g3
(g123
g5
NtRp571
(dp572
g113
Nsg116
I01
sg103
g213
sg109
(lp573
g106
asg111
(lp574
sbag482
asg111
(lp575
sbasg111
(lp576
sbag492
asg111
(lp577
sbasg148
(lp578
g3
(g123
g5
NtRp579
(dp580
g113
Nsg116
I01
sg103
g172
sg109
(lp581
g3
(g123
g5
NtRp582
(dp583
g113
Nsg116
I01
sg103
g176
sg109
(lp584
g106
asg111
(lp585
sbag3
(g123
g5
NtRp586
(dp587
g113
Nsg116
I01
sg103
g350
sg109
(lp588
g3
(g123
g5
NtRp589
(dp590
g113
Nsg116
I01
sg103
g354
sg109
(lp591
g3
(g123
g5
NtRp592
(dp593
g113
Nsg116
I01
sg103
g213
sg109
(lp594
g106
asg111
(lp595
sbag148
asg111
(lp596
sbasg111
(lp597
sbag201
asg111
(lp598
sbasg3
(g123
g5
NtRp599
(dp600
g113
Nsg116
I01
sg103
g126
sg109
(lp601
g3
(g123
g5
NtRp602
(dp603
g113
Nsg116
I00
sg103
g130
sg109
(lp604
g3
(g105
g5
NtRp605
(dp606
g103
g108
sg109
(lp607
sg111
(lp608
sg113
I17
sg114
g25
sg116
I01
sbag471
asg111
(lp609
sbasg111
(lp610
sb(lp611
g3
(g123
g5
NtRp612
(dp613
g113
Nsg116
I01
sg103
g172
sg109
(lp614
g495
ag3
(g123
g5
NtRp615
(dp616
g113
Nsg116
I01
sg103
g189
sg109
(lp617
g495
ag3
(g105
g5
NtRp618
(dp619
g103
g108
sg109
(lp620
sg111
(lp621
sg113
I5
sg114
g126
sg116
I01
sbag3
(g123
g5
NtRp622
(dp623
g113
Nsg116
I00
sg103
g109
sg109
(lp624
g495
ag489
asg111
(lp625
sbasg111
(lp626
sbag498
asg111
(lp627
sbasg3
(g123
g5
NtRp628
(dp629
g113
Nsg116
I01
sg103
g227
sg109
(lp630
g599
asg111
(lp631
sb(lp632
g3
(g123
g5
NtRp633
(dp634
g113
Nsg116
I01
sg103
g172
sg109
(lp635
g498
ag3
(g123
g5
NtRp636
(dp637
g113
Nsg116
I01
sg103
g189
sg109
(lp638
g498
ag3
(g105
g5
NtRp639
(dp640
g103
g108
sg109
(lp641
sg111
(lp642
sg113
I3
sg114
g227
sg116
I01
sbag3
(g123
g5
NtRp643
(dp644
g113
Nsg116
I00
sg103
g109
sg109
(lp645
g498
ag612
asg111
(lp646
sbasg111
(lp647
sbag181
asg111
(lp648
sbasg3
(g123
g5
NtRp649
(dp650
g113
Nsg116
I00
sg103
g138
sg109
(lp651
g3
(g105
g5
NtRp652
(dp653
g103
g108
sg109
(lp654
sg111
(lp655
sg113
Nsg114
I1
sg116
I01
sbag3
(g105
g5
NtRp656
(dp657
g103
g108
sg109
(lp658
sg111
(lp659
sg113
Nsg114
I10
sg116
I01
sbag3
(g105
g5
NtRp660
(dp661
g103
g108
sg109
(lp662
sg111
(lp663
sg113
Nsg114
I1
sg116
I01
sbasg111
(lp664
(g153
g154
tp665
asb(lp666
g3
(g123
g5
NtRp667
(dp668
g113
Nsg116
I01
sg103
g172
sg109
(lp669
g3
(g123
g5
NtRp670
(dp671
g113
Nsg116
I01
sg103
g176
sg109
(lp672
g3
(g123
g5
NtRp673
(dp674
g113
Nsg116
I01
sg103
g176
sg109
(lp675
g3
(g123
g5
NtRp676
(dp677
g113
Nsg116
I01
sg103
g176
sg109
(lp678
g181
asg111
(lp679
sbasg111
(lp680
sbasg111
(lp681
sbag3
(g123
g5
NtRp682
(dp683
g113
Nsg116
I00
sg103
g138
sg109
(lp684
g652
ag656
ag660
asg111
(lp685
(lp686
g210
ag3
(g123
g5
NtRp687
(dp688
g113
Nsg116
I01
sg103
g213
sg109
(lp689
g670
asg111
(lp690
sbaa(g153
g216
tp691
asbag673
asg111
(lp692
sbasg652
(lp693
g3
(g123
g5
NtRp694
(dp695
g113
Nsg116
I01
sg103
g172
sg109
(lp696
g3
(g123
g5
NtRp697
(dp698
g113
Nsg116
I01
sg103
g176
sg109
(lp699
g106
asg111
(lp700
sbag3
(g123
g5
NtRp701
(dp702
g113
Nsg116
I01
sg103
g350
sg109
(lp703
g3
(g123
g5
NtRp704
(dp705
g113
Nsg116
I01
sg103
g354
sg109
(lp706
g3
(g123
g5
NtRp707
(dp708
g113
Nsg116
I01
sg103
g213
sg109
(lp709
g106
asg111
(lp710
sbag652
asg111
(lp711
sbasg111
(lp712
sbag670
asg111
(lp713
sbasg3
(g123
g5
NtRp714
(dp715
g113
I6
sg116
I00
sg103
S'dict'
p716
sg109
(lp717
sg111
(lp718
(lp719
g23
ag442
aa(lp720
g31
ag3
(g123
g5
NtRp721
(dp722
g113
Nsg116
I01
sg103
g227
sg109
(lp723
g3
(g123
g5
NtRp724
(dp725
g113
Nsg116
I01
sg103
g126
sg109
(lp726
g3
(g123
g5
NtRp727
(dp728
g113
Nsg116
I00
sg103
g130
sg109
(lp729
g3
(g105
g5
NtRp730
(dp731
g103
g108
sg109
(lp732
sg111
(lp733
sg113
I16
sg114
g31
sg116
I01
sbag649
asg111
(lp734
sbasg111
(lp735
sbasg111
(lp736
sbaa(lp737
g25
ag628
aa(lp738
g29
ag319
aa(lp739
S'n_jobs'
p740
ag3
(g105
g5
NtRp741
(dp742
g103
g108
sg109
(lp743
sg111
(lp744
sg113
Nsg114
I4
sg116
I01
sbaa(lp745
g27
ag225
aasb(lp746
g3
(g123
g5
NtRp747
(dp748
g113
Nsg116
I01
sg103
g172
sg109
(lp749
g181
ag3
(g123
g5
NtRp750
(dp751
g113
Nsg116
I01
sg103
g189
sg109
(lp752
g181
ag3
(g105
g5
NtRp753
(dp754
g103
g108
sg109
(lp755
sg111
(lp756
sg113
I4
sg114
g716
sg116
I01
sbasg111
(lp757
(lp758
g23
ag3
(g123
g5
NtRp759
(dp760
g113
Nsg116
I00
sg103
g109
sg109
(lp761
g181
ag455
asg111
(lp762
sbaa(lp763
g31
ag3
(g123
g5
NtRp764
(dp765
g113
Nsg116
I00
sg103
g109
sg109
(lp766
g181
ag3
(g123
g5
NtRp767
(dp768
g113
Nsg116
I01
sg103
g172
sg109
(lp769
g676
ag3
(g123
g5
NtRp770
(dp771
g113
Nsg116
I01
sg103
g189
sg109
(lp772
g676
ag3
(g105
g5
NtRp773
(dp774
g103
g108
sg109
(lp775
sg111
(lp776
sg113
I3
sg114
g227
sg116
I01
sbag3
(g123
g5
NtRp777
(dp778
g113
Nsg116
I00
sg103
g109
sg109
(lp779
g676
ag3
(g123
g5
NtRp780
(dp781
g113
Nsg116
I01
sg103
g172
sg109
(lp782
g673
ag3
(g123
g5
NtRp783
(dp784
g113
Nsg116
I01
sg103
g189
sg109
(lp785
g673
ag3
(g105
g5
NtRp786
(dp787
g103
g108
sg109
(lp788
sg111
(lp789
sg113
I5
sg114
g126
sg116
I01
sbag3
(g123
g5
NtRp790
(dp791
g113
Nsg116
I00
sg103
g109
sg109
(lp792
g673
ag667
asg111
(lp793
sbasg111
(lp794
sbag676
asg111
(lp795
sbasg111
(lp796
sbasg111
(lp797
sbag181
asg111
(lp798
sbasg111
(lp799
sbaa(lp800
g25
ag3
(g123
g5
NtRp801
(dp802
g113
Nsg116
I00
sg103
g109
sg109
(lp803
g181
ag633
asg111
(lp804
sbaa(lp805
g29
ag3
(g123
g5
NtRp806
(dp807
g113
Nsg116
I00
sg103
g109
sg109
(lp808
g181
ag324
asg111
(lp809
sbaa(lp810
g740
ag3
(g123
g5
NtRp811
(dp812
g113
Nsg116
I00
sg103
g109
sg109
(lp813
g181
ag3
(g123
g5
NtRp814
(dp815
g113
Nsg116
I01
sg103
g172
sg109
(lp816
g3
(g123
g5
NtRp817
(dp818
g113
Nsg116
I01
sg103
g176
sg109
(lp819
g106
asg111
(lp820
sbag3
(g123
g5
NtRp821
(dp822
g113
Nsg116
I01
sg103
g350
sg109
(lp823
g3
(g123
g5
NtRp824
(dp825
g113
Nsg116
I01
sg103
g354
sg109
(lp826
g3
(g123
g5
NtRp827
(dp828
g113
Nsg116
I01
sg103
g213
sg109
(lp829
g106
asg111
(lp830
sbag741
asg111
(lp831
sbasg111
(lp832
sbag181
asg111
(lp833
sbasg111
(lp834
sbaa(lp835
g27
ag3
(g123
g5
NtRp836
(dp837
g113
Nsg116
I00
sg103
g109
sg109
(lp838
g181
ag231
asg111
(lp839
sbaasbag106
asg111
(lp840
sbasg656
(lp841
g3
(g123
g5
NtRp842
(dp843
g113
Nsg116
I01
sg103
g172
sg109
(lp844
g3
(g123
g5
NtRp845
(dp846
g113
Nsg116
I01
sg103
g176
sg109
(lp847
g106
asg111
(lp848
sbag3
(g123
g5
NtRp849
(dp850
g113
Nsg116
I01
sg103
g350
sg109
(lp851
g3
(g123
g5
NtRp852
(dp853
g113
Nsg116
I01
sg103
g354
sg109
(lp854
g3
(g123
g5
NtRp855
(dp856
g113
Nsg116
I01
sg103
g213
sg109
(lp857
g106
asg111
(lp858
sbag656
asg111
(lp859
sbasg111
(lp860
sbag670
asg111
(lp861
sbasg660
(lp862
g3
(g123
g5
NtRp863
(dp864
g113
Nsg116
I01
sg103
g172
sg109
(lp865
g3
(g123
g5
NtRp866
(dp867
g113
Nsg116
I01
sg103
g176
sg109
(lp868
g106
asg111
(lp869
sbag3
(g123
g5
NtRp870
(dp871
g113
Nsg116
I01
sg103
g350
sg109
(lp872
g3
(g123
g5
NtRp873
(dp874
g113
Nsg116
I01
sg103
g354
sg109
(lp875
g3
(g123
g5
NtRp876
(dp877
g113
Nsg116
I01
sg103
g213
sg109
(lp878
g106
asg111
(lp879
sbag660
asg111
(lp880
sbasg111
(lp881
sbag670
asg111
(lp882
sbasg724
(lp883
g780
asg721
(lp884
g767
asg741
(lp885
g814
asg257
(lp886
g298
asg260
(lp887
g3
(g123
g5
NtRp888
(dp889
g113
Nsg116
I01
sg103
g172
sg109
(lp890
g3
(g123
g5
NtRp891
(dp892
g113
Nsg116
I01
sg103
g176
sg109
(lp893
g106
asg111
(lp894
sbag3
(g123
g5
NtRp895
(dp896
g113
Nsg116
I01
sg103
g350
sg109
(lp897
g3
(g123
g5
NtRp898
(dp899
g113
Nsg116
I01
sg103
g354
sg109
(lp900
g3
(g123
g5
NtRp901
(dp902
g113
Nsg116
I01
sg103
g213
sg109
(lp903
g106
asg111
(lp904
sbag260
asg111
(lp905
sbasg111
(lp906
sbag301
asg111
(lp907
sbasg144
(lp908
g3
(g123
g5
NtRp909
(dp910
g113
Nsg116
I01
sg103
g172
sg109
(lp911
g3
(g123
g5
NtRp912
(dp913
g113
Nsg116
I01
sg103
g176
sg109
(lp914
g106
asg111
(lp915
sbag3
(g123
g5
NtRp916
(dp917
g113
Nsg116
I01
sg103
g350
sg109
(lp918
g3
(g123
g5
NtRp919
(dp920
g113
Nsg116
I01
sg103
g354
sg109
(lp921
g3
(g123
g5
NtRp922
(dp923
g113
Nsg116
I01
sg103
g213
sg109
(lp924
g106
asg111
(lp925
sbag144
asg111
(lp926
sbasg111
(lp927
sbag201
asg111
(lp928
sbasg264
(lp929
g3
(g123
g5
NtRp930
(dp931
g113
Nsg116
I01
sg103
g172
sg109
(lp932
g3
(g123
g5
NtRp933
(dp934
g113
Nsg116
I01
sg103
g176
sg109
(lp935
g106
asg111
(lp936
sbag3
(g123
g5
NtRp937
(dp938
g113
Nsg116
I01
sg103
g350
sg109
(lp939
g3
(g123
g5
NtRp940
(dp941
g113
Nsg116
I01
sg103
g354
sg109
(lp942
g3
(g123
g5
NtRp943
(dp944
g113
Nsg116
I01
sg103
g213
sg109
(lp945
g106
asg111
(lp946
sbag264
asg111
(lp947
sbasg111
(lp948
sbag301
asg111
(lp949
sbasg136
(lp950
g198
asg268
(lp951
g3
(g123
g5
NtRp952
(dp953
g113
Nsg116
I01
sg103
g172
sg109
(lp954
g3
(g123
g5
NtRp955
(dp956
g113
Nsg116
I01
sg103
g176
sg109
(lp957
g106
asg111
(lp958
sbag3
(g123
g5
NtRp959
(dp960
g113
Nsg116
I01
sg103
g350
sg109
(lp961
g3
(g123
g5
NtRp962
(dp963
g113
Nsg116
I01
sg103
g354
sg109
(lp964
g3
(g123
g5
NtRp965
(dp966
g113
Nsg116
I01
sg103
g213
sg109
(lp967
g106
asg111
(lp968
sbag268
asg111
(lp969
sbasg111
(lp970
sbag301
asg111
(lp971
sbassS'expr'
p972
g714
sS'idxs_memo'
p973
(dp974
g124
g174
sg225
g178
sg247
g280
sg319
g283
sg140
g344
sg363
g381
sg367
g404
sg371
g425
sg442
g384
sg471
g492
sg474
g519
sg478
g540
sg482
g561
sg148
g582
sg599
g495
sg628
g498
sg649
g670
sg652
g697
sg714
g181
sg656
g845
sg660
g866
sg724
g673
sg721
g676
sg741
g817
sg257
g301
sg260
g891
sg144
g912
sg264
g933
sg136
g201
sg268
g955
ssS'dfs_nodes'
p975
(lp976
g448
ag367
ag371
ag363
ag445
ag442
ag730
ag652
ag656
ag660
ag649
ag727
ag724
ag721
ag605
ag474
ag478
ag482
ag471
ag602
ag599
ag628
ag253
ag260
ag264
ag268
ag257
ag250
ag247
ag319
ag741
ag132
ag140
ag144
ag148
ag136
ag128
ag124
ag225
ag714
asS'params'
p977
(dp978
g23
g363
sg25
g471
sg27
g136
sg29
g257
sg31
g649
ssS'v_expr'
p979
g747
sS'expr_idxs'
p980
g106
sbsg972
g714
sS'pass_expr_memo_ctrl'
p981
I00
sg153
g159
sg44
Nsg977
(dp982
g23
g363
sg25
g471
sg27
g136
sg29
g257
sg31
g649
ssS's_idxs_vals'
p983
g3
(g123
g5
NtRp984
(dp985
g113
Nsg116
I01
sg103
g109
sg109
(lp986
g3
(g123
g5
NtRp987
(dp988
g113
I5
sg116
I00
sg103
g716
sg109
(lp989
sg111
(lp990
(lp991
g23
ag381
aa(lp992
g31
ag670
aa(lp993
g25
ag492
aa(lp994
g29
ag301
aa(lp995
g27
ag201
aasbag3
(g123
g5
NtRp996
(dp997
g113
I5
sg116
I00
sg103
g716
sg109
(lp998
sg111
(lp999
(lp1000
g23
ag389
aa(lp1001
g31
ag682
aa(lp1002
g25
ag504
aa(lp1003
g29
ag305
aa(lp1004
g27
ag205
aasbasg111
(lp1005
sbsS'loss_target'
p1006
NsS'installed_rng'
p1007
I01
sS'fn'
p1008
cHPOlib.cv
main
p1009
sbs.