(dp1
S'cv_endtime'
p2
(lp3
F1399999530.0019369
aF1400005414.2714629
asS'folds'
p4
I1
sS'cv_starttime'
p5
(lp6
F1399978878.68942
aF1399999530.060632
aF1400005414.2968509
asS'endtime'
p7
(lp8
sS'optimizer'
p9
S'/home/feurerm/HPOlib/Software/HPOlib/optimizers/tpe/random_hyperopt_august2013_mod'
p10
sS'optimizer_time'
p11
(lp12
sS'instance_order'
p13
(lp14
(I0
I0
tp15
a(I1
I0
tp16
a(I2
I0
tp17
asS'max_wallclock_time'
p18
S''
sS'title'
p19
NsS'trials'
p20
(lp21
(dp22
S'status'
p23
I3
sS'std'
p24
cnumpy.core.multiarray
scalar
p25
(cnumpy
dtype
p26
(S'f8'
I0
I1
tRp27
(I3
S'<'
NNNI-1
I-1
I0
tbS'\x00\x00\x00\x00\x00\x00\x00\x00'
tRp28
sS'instance_durations'
p29
cnumpy.core.multiarray
_reconstruct
p30
(cnumpy
ndarray
p31
(I0
tS'b'
tRp32
(I1
(I1
tg26
(S'f8'
I0
I1
tRp33
(I3
S'<'
NNNI-1
I-1
I0
tbI00
S'fffff*\xd4@'
tbsS'instance_results'
p34
g30
(g31
(I0
tS'b'
tRp35
(I1
(I1
tg33
I00
S'\xd1\x03\x1f\x83\x15\xa7\xd2?'
tbsS'test_error'
p36
Fnan
sS'params'
p37
ccollections
OrderedDict
p38
((lp39
(lp40
S'-max_features'
p41
aS'0.438281360031'
p42
aa(lp43
S'-min_samples_leaf'
p44
aS'4'
aa(lp45
S'-min_samples_split'
p46
aS'5'
aa(lp47
S'-n_estimators'
p48
aS'57'
p49
aa(lp50
S'-n_jobs'
p51
aS'4'
aa(lp52
S'-seed'
p53
aS'57'
p54
aatRp55
sS'result'
p56
g25
(g27
S'\xd1\x03\x1f\x83\x15\xa7\xd2?'
tRp57
sS'duration'
p58
g25
(g27
S'fffff*\xd4@'
tRp59
sS'instance_status'
p60
g30
(g31
(I0
tS'b'
tRp61
(I1
(I1
tg26
(S'i8'
I0
I1
tRp62
(I3
S'<'
NNNI-1
I-1
I0
tbI00
S'\x03\x00\x00\x00\x00\x00\x00\x00'
tbsa(dp63
S'status'
p64
I3
sS'std'
p65
g25
(g27
S'\x00\x00\x00\x00\x00\x00\x00\x00'
tRp66
sS'instance_durations'
p67
g30
(g31
(I0
tS'b'
tRp68
(I1
(I1
tg26
(S'f8'
I0
I1
tRp69
(I3
S'<'
NNNI-1
I-1
I0
tbI00
S'\n\xd7\xa3p=\xfa\xb6@'
tbsS'instance_results'
p70
g30
(g31
(I0
tS'b'
tRp71
(I1
(I1
tg69
I00
S'\xfc\xfdb\xb6dU\xd3?'
tbsS'test_error'
p72
Fnan
sS'params'
p73
g38
((lp74
(lp75
S'-max_features'
p76
aS'0.658772968701'
p77
aa(lp78
S'-min_samples_leaf'
p79
aS'9'
aa(lp80
S'-min_samples_split'
p81
aS'10'
p82
aa(lp83
S'-n_estimators'
p84
aS'9'
aa(lp85
S'-n_jobs'
p86
aS'4'
aa(lp87
S'-seed'
p88
aS'18'
p89
aatRp90
sS'result'
p91
g25
(g27
S'\xfc\xfdb\xb6dU\xd3?'
tRp92
sS'duration'
p93
g25
(g27
S'\n\xd7\xa3p=\xfa\xb6@'
tRp94
sS'instance_status'
p95
g30
(g31
(I0
tS'b'
tRp96
(I1
(I1
tg26
(S'i8'
I0
I1
tRp97
(I3
S'<'
NNNI-1
I-1
I0
tbI00
S'\x03\x00\x00\x00\x00\x00\x00\x00'
tbsa(dp98
S'status'
p99
I2
sS'std'
p100
Fnan
sS'instance_durations'
p101
g30
(g31
(I0
tS'b'
tRp102
(I1
(I1
tg26
(S'f8'
I0
I1
tRp103
(I3
S'<'
NNNI-1
I-1
I0
tbI00
S'\x00\x00\x00\x00\x00\x00\xf8\x7f'
tbsS'instance_results'
p104
g30
(g31
(I0
tS'b'
tRp105
(I1
(I1
tg103
I00
S'\x00\x00\x00\x00\x00\x00\xf8\x7f'
tbsS'instance_status'
p106
g30
(g31
(I0
tS'b'
tRp107
(I1
(I1
tg26
(S'i8'
I0
I1
tRp108
(I3
S'<'
NNNI-1
I-1
I0
tbI00
S'\x02\x00\x00\x00\x00\x00\x00\x00'
tbsS'params'
p109
g38
((lp110
(lp111
S'-max_features'
p112
aS'0.706750631048'
p113
aa(lp114
S'-min_samples_leaf'
p115
aS'6'
aa(lp116
S'-min_samples_split'
p117
aS'6'
aa(lp118
S'-n_estimators'
p119
aS'30'
p120
aa(lp121
S'-n_jobs'
p122
aS'4'
aa(lp123
S'-seed'
p124
aS'66'
p125
aatRp126
sS'result'
p127
Fnan
sS'duration'
p128
Fnan
sS'test_error'
p129
Fnan
sasS'total_wallclock_time'
p130
F26531.839999999997
sS'experiment_name'
p131
S'cv_rank_perm_random_hyperopt_august2013_mod'
p132
sS'starttime'
p133
(lp134
F1399978877.8170049
as.