(dp1
S'trials'
p2
ccopy_reg
_reconstructor
p3
(chyperopt.base
Trials
p4
c__builtin__
object
p5
NtRp6
(dp7
S'attachments'
p8
(dp9
sS'_trials'
p10
(lp11
(dp12
S'refresh_time'
p13
cdatetime
datetime
p14
(S'\x07\xde\x05\r\x10-\x1e\x00\x98X'
tRp15
sS'book_time'
p16
g14
(S'\x07\xde\x05\r\x0b\x01\x12\n\x7f\x80'
tRp17
sS'misc'
p18
(dp19
S'tid'
p20
I0
sS'idxs'
p21
(dp22
S'max_features'
p23
(lp24
I0
asS'min_samples_split'
p25
(lp26
I0
asS'seed'
p27
(lp28
I0
asS'n_estimators'
p29
(lp30
I0
asS'min_samples_leaf'
p31
(lp32
I0
assS'cmd'
p33
(S'domain_attachment'
p34
S'FMinIter_Domain'
p35
tp36
sS'vals'
p37
(dp38
g23
(lp39
F0.4382813600307629
asg25
(lp40
F5
asg27
(lp41
F57
asg29
(lp42
F57
asg31
(lp43
F4
assS'workdir'
p44
NssS'state'
p45
I2
sg20
I0
sS'exp_key'
p46
NsS'version'
p47
I0
sS'result'
p48
(dp49
S'status'
p50
S'ok'
p51
sS'loss'
p52
F0.29144799999999998
ssS'owner'
p53
NsS'spec'
p54
Nsa(dp55
g13
g14
(S'\x07\xde\x05\r\x12\x17"\x04e\x00'
tRp56
sg16
g14
(S'\x07\xde\x05\r\x10-\x1e\x00\xe6x'
tRp57
sg18
(dp58
g20
I1
sg21
(dp59
g23
(lp60
I1
asg25
(lp61
I1
asg27
(lp62
I1
asg29
(lp63
I1
asg31
(lp64
I1
assg33
(g34
g35
tp65
sg37
(dp66
g23
(lp67
F0.6587729687010927
asg25
(lp68
F10
asg27
(lp69
F18
asg29
(lp70
F9
asg31
(lp71
F9
assg44
Nssg45
I2
sg20
I1
sg46
Nsg47
I0
sg48
(dp72
g50
g51
sg52
F0.30208699999999999
ssg53
Nsg54
NsasS'_exp_key'
p73
NsS'_dynamic_trials'
p74
(lp75
g12
ag55
asS'_ids'
p76
c__builtin__
set
p77
((lp78
I0
aI1
atRp79
sbsS'domain'
p80
g3
(chyperopt.fmin
Domain
p81
g5
NtRp82
(dp83
g33
(g34
g35
tp84
sS'name'
p85
NsS's_new_ids'
p86
g3
(chyperopt.pyll.base
Literal
p87
g5
NtRp88
(dp89
g85
S'literal'
p90
sS'pos_args'
p91
(lp92
sS'named_args'
p93
(lp94
sS'o_len'
p95
I7
sS'_obj'
p96
S'new_ids'
p97
sS'pure'
p98
I01
sbsS'vh'
p99
g3
(chyperopt.vectorize
VectorizeHelper
p100
g5
NtRp101
(dp102
S'take_memo'
p103
(dp104
g3
(chyperopt.pyll.base
Apply
p105
g5
NtRp106
(dp107
g95
Nsg98
I01
sg85
S'float'
p108
sg91
(lp109
g3
(g105
g5
NtRp110
(dp111
g95
Nsg98
I00
sg85
S'hyperopt_param'
p112
sg91
(lp113
g3
(g87
g5
NtRp114
(dp115
g85
g90
sg91
(lp116
sg93
(lp117
sg95
I4
sg96
g27
sg98
I01
sbag3
(g105
g5
NtRp118
(dp119
g95
Nsg98
I00
sg85
S'quniform'
p120
sg91
(lp121
g3
(g87
g5
NtRp122
(dp123
g85
g90
sg91
(lp124
sg93
(lp125
sg95
Nsg96
I1
sg98
I01
sbag3
(g87
g5
NtRp126
(dp127
g85
g90
sg91
(lp128
sg93
(lp129
sg95
Nsg96
I100
sg98
I01
sbag3
(g87
g5
NtRp130
(dp131
g85
g90
sg91
(lp132
sg93
(lp133
sg95
Nsg96
I1
sg98
I01
sbasg93
(lp134
(S'rng'
p135
g3
(g87
g5
NtRp136
(dp137
g85
g90
sg91
(lp138
sg93
(lp139
sg95
Nsg96
cnumpy.random
__RandomState_ctor
p140
(tRp141
(S'MT19937'
p142
cnumpy.core.multiarray
_reconstruct
p143
(cnumpy
ndarray
p144
(I0
tS'b'
tRp145
(I1
(I624
tcnumpy
dtype
p146
(S'u4'
I0
I1
tRp147
(I3
S'<'
NNNI-1
I-1
I0
tbI00
S'~a&tG\xffC\xf9I\x02\xd3:\xabC\xaeIV\xc0\x0c\xdf\xaa\xdf\x84\xf3\xe7n\x04\xd0\x8c\x10\xba!N\x9d\xbbIb\x95b~\xa5\x97q\\\x0bL \xe5\xce\x06j\xef@<\xc6NH\xca\xf4K\x81w\xad^dBH\x9eL$c.\xed\xe5[JO\x86\x01:\x96\xb33\xa6\x87"c\x1d\xb6.\xcbbBNX\xb3\x8e\xbb\xbe\xf0j\x1e\x13?\xb5\xdb\xd3\xd2\xa0\xf3\x82\x17\x18I\x9fC\xe8y\xb3m\x90\x90\xe6\x8b\xd2\xee\xc5\x11z\x14]\xba\\\xf0<\xc2\x83a\x89\x00p\xf6-\x18\xc8V;\x81,3\xa2\xc0\xf5py\xeb\x86\xb1k\n\xe0\xb0\xfc\xeff\xab\xeba\x93\xb5\x06{9(\x97\xdc\xc6@\x89\xec2\x80\x9c<\xde\xc1\x00\xe9\xa4<ut5\x19\x1fb.`4.\x02IK\xf1\xa3\xfa\x97\xb1\xc8\xd2K#\xfc@\xbf\x955\xf19~|]\xd9\xd1`\x88\x87\xbbE\xbc\x18fN\xc5\x94$\x9c\xd0\x00\xed\xae,\xec[/f\xea\x83\x88\xb1\xc8-\x04\x02\xc66\xf5\xffr\x1e\x03p!\xc9\xb9\x13\x94\x82\xa8#\xa1\x8d\xee\xfa\xb5\xc2a\xf7I\x81\x8a\xc8\xb9\x1f\x83 \xf8m\x97\xa6\x015TI\xf5\xa6G\xf3\xbb\xf8\xce7_\xa2\x1b\x1f.\xf3Kc\x15\x86\xb0\x87\xe5\xb4\x8f\x80\x19\x9ae\x07\xa1\xa2\x04\x13m\xfc\xc4\x0f\xf0`k\x8f\x86\xf1I_~\xd7O\xc5s\xcblHNy,\xef\xf2ktus^ \x03\x82\xa8\xf0\xa29\x94\xb8\x94Z\x87\r\x1a\x94l+\xe2\xceA\x07\x98{\x85\xd5?}\x0e\xb9\xc6\x12\xf3\xad\xa1Kr\xfad\xc5\x98\x86\xd8:\xa0\xd8G\xc0\xef\xf8\xa4\xea\x8d\xb1\xc9om42\xfd\xe3\x12D9&\x17&\xce\x06\xec\xa8\xe3\xb0\xb82e\xca\xc4\x96\xd9b\xf0\xc4\x92\xd7c\xd2\xc5\xd9\xa4\xdeV\r\xe1"\x90A\xca\x8c1\xe0N\xef\xfb\n\xfc\x9eimS\xcc%\xfd\x11\x86\xa3x@\xefO\x0ciL`\'=G\xe8\xb7{>\xcet\xeb\xd4J\xaf\x86\x84\xef\x98\x1b\x86@\x85g\xd3\xb9\x94\xcc\xa4\xeaq,\xc3r\x1f\x1e<\x98b\xaa\xedu&oO\xb4g\\\xe2\xd0\xb0%D0x\x00XV\x1b\xb4tc[\xa8q\x95%\xd2\x0cH\x9ePL#\x076\xd0\x98-P\xb4\xebD\xf7x\xd5\xd1:-\xa9o\xb5\xc6\xfbII|\x91\x1f!\x169n\xbb\xc50\xe6*9AK\xa9!\xf8Wd\xff\x0b=Z`;\xb0<A\xb3\xa02\xab\xa7Z3w\x95\x9b\xa8\xb1\xf7d\n\x15\xb0\xf9km\xca\xdd\xa7\xab\xdc{\xfe\xa4ecc\xbd\x1e\xaf\xb4\xd7\xdb\x1c\x89\xdf\xc2\xc2\xf15\x7f\xb2\xd1\xbc\xe97\xd6eR\x7f\xfe(\xd0\xd1h\xabu\x81j\\\xb8K\xbb\xe5\x81\xa8\x8aK\xa6\x01\xa8\xf1\xca\xab\xa0\x89P\x91|eS\xc3\xab\xf8"\xf6r\x9e\xbe\xb8:g\xe9\xb9\xcc\xa2\x07\xcd\xba\xdc\xae\x03\xad\xd7\xaam\x81\xa4\xe2\xd1\xb4\xa42\x85\x9e\xa7J\xf4on;r}D)\x91\xde}\xa3\x1f\x8f(.\xdd\x92x*j\x10\xf7\xaa\x91\xd9\xa2\xd1\xbb1~\xca;M\xd4c\x00\x13\xd6\xc2Y\xde\xf9\xa8\xcb-)\xaf_\x91\xb8T\x15\xf7Z6& S\xcb\n\xfbI\xbdbR\x93\xdeo\xf4\xf8\xea\x8f\x0e\x0b\xb2a\xa3?\x89\xad>\xe5{\x90?\xcf\xa8\x9b\x83wN`\xad\xaa|\x1bz\xed\xc5\xa1c\xbe\xdc\xaa\x85o\xa4\xff\xbb`\xf1\xeb\xd4]\x028g\x8dl\xf8\xea\x9a\xff]1\xd9\x19\x92C\xb0\x83O\x05L\xc7C\x95\x80\x18\x13\x1at\xcc\xe1bF\x0b\xcd\x1d\x13\x80\x11\'\xca#e\xde\x1bVU\x14\xad\xa5-\xbf\xc3\x1dsC\x80IJ\xaf7\xf7\xc0\xbb\x87\xd2\xb3NyqRk-M2#\x0e\xd4D\x9cz\xc4K\x84-mD\xcc\xd6_\xb0C\xc6\x9e\xdc\x97\xfb\x89\x11\xbfZ\xc5\x1es\xe1\xfd\x91\xda\x80\x97=\xaa\x9d(l\xbbv\xc8\xb8\x83\xe7\xb4\xb5F\x94R\xd2_\xc9(\xfd?1=\xfa>\xd6\x9a\xfb\xe3R\x917\xcc\x14\xb6.\x81\x80\xcfO\x908\xa1J\xec\xa6\xa3\xf671\xd6l\xff\x89\xb0\x05\x03\xae\x96\xbb\x0f\xc27\xe7\x92\xd6\x0c\x04\xaa\x83\x11+\xe3\xaa\xfd\xd1$&\xcb\x12\xe0\x9c\xb7\x08\x08\xbd\xe3c>\xa9UR\xc7\x88\xb6(?\x91!e\x12\xad\x8e\x07[_+\xea\xfd\x9e\xd6\xa3mh\xb1\x16z\xdb\x9a\xe8\x10\xf1\xc1\x81(i\xe4\x17(\xb0n\xbf*K\x96\xbcM\x8d\x93\x17AV=\x96\xbbO{\xc1\x14J\xc7\x16Fa\xd7\xdd:\x11\x12\xd9\xa0Q\xfe\xdf\x8b\xd5\x84\xa3\x9c\xd1\xad,\x93\xb4d(W"\xca\x1d3{\xd2\xbc\xd4\x11\x9c1Vj\xba1@d\xc729\xf2\x90?\x15E\n\xea\x99\x04\xb7\\\x1cq\x91\xf0\xdf7\x8c\x03\x81x`\x97T\xc5\xea\x9c_\t_\x84\xc1\xafq[H\xe2o\x10\xfe\x83\xd9\xd6\xda\xd2y\x01\xd6+\xe6\xa0\xf2\x8a\x17\x8as\xa6\xf4\x12(fm\xf0s\xdb\xfd\x07Y\xfaz\xca\xf1p\x1d\xcaK\xd51\xa7\xf0 \x1b\x1f\xd6C\xe8&\xed\xec\xa7\xf7\xe7\x10\x92\t\xd3\xb0\xd7\x8f\xdd\x05L\x1f\xce\x0b\xda\xa2|EB\x8b\x10\x7f\xee\xa9\xd1u\xc0\xaf?YY?Y\xbe\xb6BXaU\xb6\xc5\x9a\x90\xb4M\xef\xfekI\x8c\x9d+{rR\xd0\xe2\xc4a7c\xc1\xb65\xb4\x9d\xab\xe1\x07\xb0Z\xc7<\xfeIhfX\x93\xbc|\xfe\xc9\x8bTnTu\x83.\xf8\xd6\x19\xfef\xd1\xfd\xe0\xf04\xbd\x84\xb9\x81e\xebFC\x8b1\x18\x94S\x7fK\xc4\x85\xe3\x0e\xf8\x01\xd1&`wP\xe5\xf6r\xd3\xbc;\xf6;\x97V\xdc@>Go\x13\xbe\x95r\xed\xad\x1cz\xd5\xd5\xd1\xb2ts\xc6\x1c$v\x13\xab\xa1\xd2^\\\xb2\xd6K2\xfe)J\xb1\xee\\\xc5H\xd1\x80\x13\xf1\x8c\xf9J`\x02/.\xb8\xc2K\xe1\xf6y\x0c\xc9\xd2"\xb2\r\x8c\xed`j\xbe\x89c\x96,T\x9c\xb6$\xa3V\xe7*Gd>\x96\n$\xb6\xa2\xa962\x94(\x11\xfc\xa8\xa27\xc7\xd6bT\xcc\xc6\xb7\x063\x82nL$}t\xe6\xfd\x0c\xa1o\xb0\xa3\x1b\xc3"\xd2\x97mo+B\x11\xf9\xfe\xd8g\xd2\xc0\x93_&\r\x93?l\n\xe4@e\x0bA@\xe8\x887\xe6W\xc4Y\xecuW\x9b\x96P\xdd lv\xf3`r\xaa\x9dd\xae\xe4\xbc\x1f\xf0\xaf\xaf\xc2\'\xa3\xef\xcc\xfd{0\xa2\x89\xcb")\x13\xb0\xc0m\x88\xed\x91{\xa2\x92\xaa\xd1\xbe\xc6x\x92\xe9\xb8UJkQ\x91\x1e\xc4\xbf\xb3\xc1\xb0\xea\xb4@\x82\x16%\x1a\x8c\x08\xecl:\xdc\x83"y\x97*\x81\x1aS\x8d\xe4\x90\xacFDdr\xc3\xef\x8bc\x8a\x957\xd6\x0cU\xfam\xa1-\x90\x82\xff\xc4r\xe4\xe6A\xdd\xa2\x1b{g\x1cA<\xab6\xd3\xafg7\xc8\xd0e\xdc\\_p\x9b\x05\xfd\xaf\xe8\x1fATLM\t\xdb\x97q\xaf\x8c\x1bo\x8f\x19u\xcf\xc4\x9e\xdd\xff\x8d\xa1\x82\xb6mN\xfb\xe5}w\n\xc06\xfdV\xb2\xea}<\xf1\xc8\xce\x94\xbd\x15\x0f\xbe\xbaa\x8c\x02\xd0\x9bv\xc4\xa0\xc8\x13\xdaN\xe9kk\x83\xa5\xdc\xe3\x83\x8b\x1f\xc6\xdeI\xb5S\\\xad!>\r\xe6\xbc\x04\xce?\xd1\xa1\x86eU/9\x03H\xb1M\xd7\xd5\xc1\x96n/p2%b\xc8r\xeci.\xdf\xa3*.\xc3\nj\x03\x9a[\x0b\xaa\xe8\xaf`\xcbrc\x05\x89\xafN\x93\x1a+F\xc2\x92[uT\xbbN\x82\xe4\xe2\xc4\x93T\xc93\xee\xbcGt}\x80S\xe9\x8e\xdfz\xa6\x0c\x1dC\xec\xf3\x83.@\x1b\x12\x95I\xe6\xb5\x89\x10dI7\x8a\xca\xcd\x82?\x894\xb5>\xaa\x8dn2\x9cQ\r\xf0S4\x9e\xa3k\xe0"\x96U\x0e\x92w\xca)\xd3\x90\xad\xa3\xad\xb7\'\xda\xbe:\x1f4\xbf\xfb\xf9\xce\xc6x>q\x16G\xb4\x87\xc8\xe3\x8a\x1a\xe0\xba4\x1a\xab\x14U\x18\x9f\xb5\x9b\x14\xa4\x87\xb3\x0b\xc4\xef4\xb9y\xb7\xd5.iD\xb7\xfd\xb3\x9b\xa5\x8cA\xca\xc3_\x18\\\\\xaa\x1d{\xd5L\xa9GyG~\x10<qp\x0e\xdd\x81#\x1d;\x90L;\x9b\xe2H\xa4\x9c\xdd\xe6@\xc5\xa8\x04\x06\xba\xf5\x83 \x8c-_\xba\xb3\x89\xb1\x0f\x9b)\xdcp\x83\xb2DMS\xdd+\x9a\x03\xdf\xfe\x94\x19\xb5\x88m\x0fN\xec\xf8\x12\xd2\xbb^\xfcD\xcb\x90\x10\xab\xbbDW5\x95q\xee\xd8\x11\xef\xbf5\xe3\x16\x82DCG\xe93\x8f\xeb\xa2\xf13\x12\xf1:\xb4H\x19\x984\'\x89\xe2\xd2\x98B\x8b\xad\xa5\xfcrH\x1d\x05\xe2\xf9\xdf\xf2\x8f\xe8R\xdf\x80\xd1-\xabI\x0b\x00e\x88R\xdf\x1fQ\x98\xb5\x94t\x93\xd5\xce\xccy\x11\x83\xa2\xe7R\xb3\xc5L/\x7f\xa8&F\xedp\xc3L\xfa\xa6G\xb3\x89w8\xfb+\xa4)\x85J\xbf\xa1,\xf0\x05\x85\x04\x9b\x93Z\x90\xc4?G\xc4\xfb\xea\xd3\xcf\x96O\x9c\xbe.J\xa5\x14\'\x9bJmF\x97(I\xc9\xe4\x89\x8e\t>H\x84\'\xd8\x00%\x01\x1eC\x84\xf0\xb20\x8f\x80r\xd9j\x1b\xd9\xbe\x08\xc90\xe6\x84\x1f\xb5\x8b\xc4\\B=\xc2\x1a\xc2\xda\xd0\t&\xc3\x80\x0f\x81\xda\xd7;\x7f|=\xd1\x992D\xc5\xc8\xfc\x81\x16\xe0!\xd7\xa1\xbc\xdcQ&\xbd\xeb\xe7\xd9\xc0\xf8\x9d\xb2\xbf\x96\xe4\x92T\xfd\xbe\xc4,\xf0\x06\x84\xc2[o\xb4\xe1\xbep<9\xdd1\xfci^U\xc5\x95\xfbj3<~\x0b\xa3\xc7\x00o\xbb\xc3\xb9\xc0\x99p\xab\x9e%U\x85\xa6\xe2\xe4\xd4_\xff\x1c`\x1e\x7f\xf0\x08M69\tF\xc5\xec\x03N\xc9\xf5\xf2\x8c\xd6\xbaM\xf2\x1d([3a#\x86?\x99\xc6\x00s+jh\xb3 \x01#\xe2`\xbeN\xf1<\xb8\xb0\'\xb8\x95\x15\xf3\xcdr\x8d\xbb\xf3\xe0\xcd\xaa\x7f\xcb\xb9\x02A~$\x05Y\x94\xca\x1e\xc9Cl\x15Y\xcdP\xf6>\x02\xc9E-}n9(\xdbu\x8b\x00*.\xda\x00\xaeYCi\nRB\x95\xa3\xc9\xb1\xf5\x1e\x9a\x02\xfa\x0f\xaa\x0f\x94*\x9f\x1b\xe0\xcd\x96\x1e<\x97\x9aus>\x80\t\xbe\xad\rQ&]\xd7\xdeS\xa0\xa8\xec\xddc\xd5\x1e\xa0\x91=zW#\xfe8\x0f\xd2\xbc\x1d\x11\xdd\xb9)B= \xdf\x1d\xa4\x93\\\x9c\xc9S\xeazx+'
tbI10
I0
F0
tbsg98
I01
sbtp148
asbasg93
(lp149
sbasg93
(lp150
sb(lp151
g3
(g105
g5
NtRp152
(dp153
g95
Nsg98
I01
sg85
S'idxs_take'
p154
sg91
(lp155
g3
(g105
g5
NtRp156
(dp157
g95
Nsg98
I01
sg85
S'array_union'
p158
sg91
(lp159
g3
(g105
g5
NtRp160
(dp161
g95
Nsg98
I01
sg85
g158
sg91
(lp162
g3
(g105
g5
NtRp163
(dp164
g95
Nsg98
I01
sg85
g158
sg91
(lp165
g88
asg93
(lp166
sbasg93
(lp167
sbasg93
(lp168
sbag3
(g105
g5
NtRp169
(dp170
g95
Nsg98
I01
sg85
S'idxs_map'
p171
sg91
(lp172
g156
ag3
(g87
g5
NtRp173
(dp174
g85
g90
sg91
(lp175
sg93
(lp176
sg95
I5
sg96
g108
sg98
I01
sbag3
(g105
g5
NtRp177
(dp178
g95
Nsg98
I00
sg85
g91
sg91
(lp179
g156
ag3
(g105
g5
NtRp180
(dp181
g95
Nsg98
I01
sg85
g154
sg91
(lp182
g3
(g105
g5
NtRp183
(dp184
g95
Nsg98
I01
sg85
g158
sg91
(lp185
g156
asg93
(lp186
sbag3
(g105
g5
NtRp187
(dp188
g95
Nsg98
I00
sg85
g120
sg91
(lp189
g122
ag126
ag130
asg93
(lp190
(lp191
S'size'
p192
ag3
(g105
g5
NtRp193
(dp194
g95
Nsg98
I01
sg85
S'len'
p195
sg91
(lp196
g183
asg93
(lp197
sbaa(g135
g3
(g87
g5
NtRp198
(dp199
g85
g90
sg91
(lp200
sg93
(lp201
sg95
Nsg96
g141
sg98
I01
sbtp202
asbag156
asg93
(lp203
sbasg93
(lp204
sbasg93
(lp205
sbag160
asg93
(lp206
sbasg3
(g105
g5
NtRp207
(dp208
g95
Nsg98
I01
sg85
S'int'
p209
sg91
(lp210
g106
asg93
(lp211
sb(lp212
g3
(g105
g5
NtRp213
(dp214
g95
Nsg98
I01
sg85
g154
sg91
(lp215
g160
ag3
(g105
g5
NtRp216
(dp217
g95
Nsg98
I01
sg85
g171
sg91
(lp218
g160
ag3
(g87
g5
NtRp219
(dp220
g85
g90
sg91
(lp221
sg93
(lp222
sg95
I3
sg96
g209
sg98
I01
sbag3
(g105
g5
NtRp223
(dp224
g95
Nsg98
I00
sg85
g91
sg91
(lp225
g160
ag152
asg93
(lp226
sbasg93
(lp227
sbag163
asg93
(lp228
sbasg3
(g105
g5
NtRp229
(dp230
g95
Nsg98
I01
sg85
g108
sg91
(lp231
g3
(g105
g5
NtRp232
(dp233
g95
Nsg98
I00
sg85
g112
sg91
(lp234
g3
(g87
g5
NtRp235
(dp236
g85
g90
sg91
(lp237
sg93
(lp238
sg95
I12
sg96
g29
sg98
I01
sbag3
(g105
g5
NtRp239
(dp240
g95
Nsg98
I00
sg85
g120
sg91
(lp241
g3
(g87
g5
NtRp242
(dp243
g85
g90
sg91
(lp244
sg93
(lp245
sg95
Nsg96
I1
sg98
I01
sbag3
(g87
g5
NtRp246
(dp247
g85
g90
sg91
(lp248
sg93
(lp249
sg95
Nsg96
I100
sg98
I01
sbag3
(g87
g5
NtRp250
(dp251
g85
g90
sg91
(lp252
sg93
(lp253
sg95
Nsg96
I1
sg98
I01
sbasg93
(lp254
(g135
g136
tp255
asbasg93
(lp256
sbasg93
(lp257
sb(lp258
g3
(g105
g5
NtRp259
(dp260
g95
Nsg98
I01
sg85
g154
sg91
(lp261
g3
(g105
g5
NtRp262
(dp263
g95
Nsg98
I01
sg85
g158
sg91
(lp264
g3
(g105
g5
NtRp265
(dp266
g95
Nsg98
I01
sg85
g158
sg91
(lp267
g163
asg93
(lp268
sbasg93
(lp269
sbag3
(g105
g5
NtRp270
(dp271
g95
Nsg98
I01
sg85
g171
sg91
(lp272
g262
ag3
(g87
g5
NtRp273
(dp274
g85
g90
sg91
(lp275
sg93
(lp276
sg95
I5
sg96
g108
sg98
I01
sbag3
(g105
g5
NtRp277
(dp278
g95
Nsg98
I00
sg85
g91
sg91
(lp279
g262
ag3
(g105
g5
NtRp280
(dp281
g95
Nsg98
I01
sg85
g154
sg91
(lp282
g3
(g105
g5
NtRp283
(dp284
g95
Nsg98
I01
sg85
g158
sg91
(lp285
g262
asg93
(lp286
sbag3
(g105
g5
NtRp287
(dp288
g95
Nsg98
I00
sg85
g120
sg91
(lp289
g242
ag246
ag250
asg93
(lp290
(lp291
g192
ag3
(g105
g5
NtRp292
(dp293
g95
Nsg98
I01
sg85
g195
sg91
(lp294
g283
asg93
(lp295
sbaa(g135
g198
tp296
asbag262
asg93
(lp297
sbasg93
(lp298
sbasg93
(lp299
sbag265
asg93
(lp300
sbasg3
(g105
g5
NtRp301
(dp302
g95
Nsg98
I01
sg85
g209
sg91
(lp303
g229
asg93
(lp304
sb(lp305
g3
(g105
g5
NtRp306
(dp307
g95
Nsg98
I01
sg85
g154
sg91
(lp308
g265
ag3
(g105
g5
NtRp309
(dp310
g95
Nsg98
I01
sg85
g171
sg91
(lp311
g265
ag3
(g87
g5
NtRp312
(dp313
g85
g90
sg91
(lp314
sg93
(lp315
sg95
I3
sg96
g209
sg98
I01
sbag3
(g105
g5
NtRp316
(dp317
g95
Nsg98
I00
sg85
g91
sg91
(lp318
g265
ag259
asg93
(lp319
sbasg93
(lp320
sbag163
asg93
(lp321
sbasg122
(lp322
g3
(g105
g5
NtRp323
(dp324
g95
Nsg98
I01
sg85
g154
sg91
(lp325
g3
(g105
g5
NtRp326
(dp327
g95
Nsg98
I01
sg85
g158
sg91
(lp328
g88
asg93
(lp329
sbag3
(g105
g5
NtRp330
(dp331
g95
Nsg98
I01
sg85
S'asarray'
p332
sg91
(lp333
g3
(g105
g5
NtRp334
(dp335
g95
Nsg98
I01
sg85
S'repeat'
p336
sg91
(lp337
g3
(g105
g5
NtRp338
(dp339
g95
Nsg98
I01
sg85
g195
sg91
(lp340
g88
asg93
(lp341
sbag122
asg93
(lp342
sbasg93
(lp343
sbag183
asg93
(lp344
sbasg3
(g105
g5
NtRp345
(dp346
g95
Nsg98
I00
sg85
S'uniform'
p347
sg91
(lp348
g3
(g87
g5
NtRp349
(dp350
g85
g90
sg91
(lp351
sg93
(lp352
sg95
Nsg96
F0.10000000000000001
sg98
I01
sbag3
(g87
g5
NtRp353
(dp354
g85
g90
sg91
(lp355
sg93
(lp356
sg95
Nsg96
I1
sg98
I01
sbasg93
(lp357
(g135
g136
tp358
asb(lp359
g3
(g105
g5
NtRp360
(dp361
g95
Nsg98
I01
sg85
g154
sg91
(lp362
g3
(g105
g5
NtRp363
(dp364
g95
Nsg98
I01
sg85
g158
sg91
(lp365
g3
(g105
g5
NtRp366
(dp367
g95
Nsg98
I01
sg85
g158
sg91
(lp368
g163
asg93
(lp369
sbasg93
(lp370
sbag3
(g105
g5
NtRp371
(dp372
g95
Nsg98
I00
sg85
g347
sg91
(lp373
g349
ag353
asg93
(lp374
(lp375
g192
ag3
(g105
g5
NtRp376
(dp377
g95
Nsg98
I01
sg85
g195
sg91
(lp378
g363
asg93
(lp379
sbaa(g135
g198
tp380
asbag366
asg93
(lp381
sbasg349
(lp382
g3
(g105
g5
NtRp383
(dp384
g95
Nsg98
I01
sg85
g154
sg91
(lp385
g3
(g105
g5
NtRp386
(dp387
g95
Nsg98
I01
sg85
g158
sg91
(lp388
g88
asg93
(lp389
sbag3
(g105
g5
NtRp390
(dp391
g95
Nsg98
I01
sg85
g332
sg91
(lp392
g3
(g105
g5
NtRp393
(dp394
g95
Nsg98
I01
sg85
g336
sg91
(lp395
g3
(g105
g5
NtRp396
(dp397
g95
Nsg98
I01
sg85
g195
sg91
(lp398
g88
asg93
(lp399
sbag349
asg93
(lp400
sbasg93
(lp401
sbag363
asg93
(lp402
sbasg353
(lp403
g3
(g105
g5
NtRp404
(dp405
g95
Nsg98
I01
sg85
g154
sg91
(lp406
g3
(g105
g5
NtRp407
(dp408
g95
Nsg98
I01
sg85
g158
sg91
(lp409
g88
asg93
(lp410
sbag3
(g105
g5
NtRp411
(dp412
g95
Nsg98
I01
sg85
g332
sg91
(lp413
g3
(g105
g5
NtRp414
(dp415
g95
Nsg98
I01
sg85
g336
sg91
(lp416
g3
(g105
g5
NtRp417
(dp418
g95
Nsg98
I01
sg85
g195
sg91
(lp419
g88
asg93
(lp420
sbag353
asg93
(lp421
sbasg93
(lp422
sbag363
asg93
(lp423
sbasg3
(g105
g5
NtRp424
(dp425
g95
Nsg98
I01
sg85
g108
sg91
(lp426
g3
(g105
g5
NtRp427
(dp428
g95
Nsg98
I00
sg85
g112
sg91
(lp429
g3
(g87
g5
NtRp430
(dp431
g85
g90
sg91
(lp432
sg93
(lp433
sg95
I12
sg96
g23
sg98
I01
sbag345
asg93
(lp434
sbasg93
(lp435
sb(lp436
g3
(g105
g5
NtRp437
(dp438
g95
Nsg98
I01
sg85
g154
sg91
(lp439
g366
ag3
(g105
g5
NtRp440
(dp441
g95
Nsg98
I01
sg85
g171
sg91
(lp442
g366
ag3
(g87
g5
NtRp443
(dp444
g85
g90
sg91
(lp445
sg93
(lp446
sg95
I5
sg96
g108
sg98
I01
sbag3
(g105
g5
NtRp447
(dp448
g95
Nsg98
I00
sg85
g91
sg91
(lp449
g366
ag360
asg93
(lp450
sbasg93
(lp451
sbag163
asg93
(lp452
sbasg3
(g105
g5
NtRp453
(dp454
g95
Nsg98
I00
sg85
g120
sg91
(lp455
g3
(g87
g5
NtRp456
(dp457
g85
g90
sg91
(lp458
sg93
(lp459
sg95
Nsg96
I1
sg98
I01
sbag3
(g87
g5
NtRp460
(dp461
g85
g90
sg91
(lp462
sg93
(lp463
sg95
Nsg96
I10
sg98
I01
sbag3
(g87
g5
NtRp464
(dp465
g85
g90
sg91
(lp466
sg93
(lp467
sg95
Nsg96
I1
sg98
I01
sbasg93
(lp468
(g135
g136
tp469
asb(lp470
g3
(g105
g5
NtRp471
(dp472
g95
Nsg98
I01
sg85
g154
sg91
(lp473
g3
(g105
g5
NtRp474
(dp475
g95
Nsg98
I01
sg85
g158
sg91
(lp476
g3
(g105
g5
NtRp477
(dp478
g95
Nsg98
I01
sg85
g158
sg91
(lp479
g3
(g105
g5
NtRp480
(dp481
g95
Nsg98
I01
sg85
g158
sg91
(lp482
g163
asg93
(lp483
sbasg93
(lp484
sbasg93
(lp485
sbag3
(g105
g5
NtRp486
(dp487
g95
Nsg98
I00
sg85
g120
sg91
(lp488
g456
ag460
ag464
asg93
(lp489
(lp490
g192
ag3
(g105
g5
NtRp491
(dp492
g95
Nsg98
I01
sg85
g195
sg91
(lp493
g474
asg93
(lp494
sbaa(g135
g198
tp495
asbag477
asg93
(lp496
sbasg456
(lp497
g3
(g105
g5
NtRp498
(dp499
g95
Nsg98
I01
sg85
g154
sg91
(lp500
g3
(g105
g5
NtRp501
(dp502
g95
Nsg98
I01
sg85
g158
sg91
(lp503
g88
asg93
(lp504
sbag3
(g105
g5
NtRp505
(dp506
g95
Nsg98
I01
sg85
g332
sg91
(lp507
g3
(g105
g5
NtRp508
(dp509
g95
Nsg98
I01
sg85
g336
sg91
(lp510
g3
(g105
g5
NtRp511
(dp512
g95
Nsg98
I01
sg85
g195
sg91
(lp513
g88
asg93
(lp514
sbag456
asg93
(lp515
sbasg93
(lp516
sbag474
asg93
(lp517
sbasg460
(lp518
g3
(g105
g5
NtRp519
(dp520
g95
Nsg98
I01
sg85
g154
sg91
(lp521
g3
(g105
g5
NtRp522
(dp523
g95
Nsg98
I01
sg85
g158
sg91
(lp524
g88
asg93
(lp525
sbag3
(g105
g5
NtRp526
(dp527
g95
Nsg98
I01
sg85
g332
sg91
(lp528
g3
(g105
g5
NtRp529
(dp530
g95
Nsg98
I01
sg85
g336
sg91
(lp531
g3
(g105
g5
NtRp532
(dp533
g95
Nsg98
I01
sg85
g195
sg91
(lp534
g88
asg93
(lp535
sbag460
asg93
(lp536
sbasg93
(lp537
sbag474
asg93
(lp538
sbasg464
(lp539
g3
(g105
g5
NtRp540
(dp541
g95
Nsg98
I01
sg85
g154
sg91
(lp542
g3
(g105
g5
NtRp543
(dp544
g95
Nsg98
I01
sg85
g158
sg91
(lp545
g88
asg93
(lp546
sbag3
(g105
g5
NtRp547
(dp548
g95
Nsg98
I01
sg85
g332
sg91
(lp549
g3
(g105
g5
NtRp550
(dp551
g95
Nsg98
I01
sg85
g336
sg91
(lp552
g3
(g105
g5
NtRp553
(dp554
g95
Nsg98
I01
sg85
g195
sg91
(lp555
g88
asg93
(lp556
sbag464
asg93
(lp557
sbasg93
(lp558
sbag474
asg93
(lp559
sbasg130
(lp560
g3
(g105
g5
NtRp561
(dp562
g95
Nsg98
I01
sg85
g154
sg91
(lp563
g3
(g105
g5
NtRp564
(dp565
g95
Nsg98
I01
sg85
g158
sg91
(lp566
g88
asg93
(lp567
sbag3
(g105
g5
NtRp568
(dp569
g95
Nsg98
I01
sg85
g332
sg91
(lp570
g3
(g105
g5
NtRp571
(dp572
g95
Nsg98
I01
sg85
g336
sg91
(lp573
g3
(g105
g5
NtRp574
(dp575
g95
Nsg98
I01
sg85
g195
sg91
(lp576
g88
asg93
(lp577
sbag130
asg93
(lp578
sbasg93
(lp579
sbag183
asg93
(lp580
sbasg3
(g105
g5
NtRp581
(dp582
g95
Nsg98
I01
sg85
g108
sg91
(lp583
g3
(g105
g5
NtRp584
(dp585
g95
Nsg98
I00
sg85
g112
sg91
(lp586
g3
(g87
g5
NtRp587
(dp588
g85
g90
sg91
(lp589
sg93
(lp590
sg95
I17
sg96
g25
sg98
I01
sbag453
asg93
(lp591
sbasg93
(lp592
sb(lp593
g3
(g105
g5
NtRp594
(dp595
g95
Nsg98
I01
sg85
g154
sg91
(lp596
g477
ag3
(g105
g5
NtRp597
(dp598
g95
Nsg98
I01
sg85
g171
sg91
(lp599
g477
ag3
(g87
g5
NtRp600
(dp601
g85
g90
sg91
(lp602
sg93
(lp603
sg95
I5
sg96
g108
sg98
I01
sbag3
(g105
g5
NtRp604
(dp605
g95
Nsg98
I00
sg85
g91
sg91
(lp606
g477
ag471
asg93
(lp607
sbasg93
(lp608
sbag480
asg93
(lp609
sbasg3
(g105
g5
NtRp610
(dp611
g95
Nsg98
I01
sg85
g209
sg91
(lp612
g581
asg93
(lp613
sb(lp614
g3
(g105
g5
NtRp615
(dp616
g95
Nsg98
I01
sg85
g154
sg91
(lp617
g480
ag3
(g105
g5
NtRp618
(dp619
g95
Nsg98
I01
sg85
g171
sg91
(lp620
g480
ag3
(g87
g5
NtRp621
(dp622
g85
g90
sg91
(lp623
sg93
(lp624
sg95
I3
sg96
g209
sg98
I01
sbag3
(g105
g5
NtRp625
(dp626
g95
Nsg98
I00
sg85
g91
sg91
(lp627
g480
ag594
asg93
(lp628
sbasg93
(lp629
sbag163
asg93
(lp630
sbasg3
(g105
g5
NtRp631
(dp632
g95
Nsg98
I00
sg85
g120
sg91
(lp633
g3
(g87
g5
NtRp634
(dp635
g85
g90
sg91
(lp636
sg93
(lp637
sg95
Nsg96
I1
sg98
I01
sbag3
(g87
g5
NtRp638
(dp639
g85
g90
sg91
(lp640
sg93
(lp641
sg95
Nsg96
I10
sg98
I01
sbag3
(g87
g5
NtRp642
(dp643
g85
g90
sg91
(lp644
sg93
(lp645
sg95
Nsg96
I1
sg98
I01
sbasg93
(lp646
(g135
g136
tp647
asb(lp648
g3
(g105
g5
NtRp649
(dp650
g95
Nsg98
I01
sg85
g154
sg91
(lp651
g3
(g105
g5
NtRp652
(dp653
g95
Nsg98
I01
sg85
g158
sg91
(lp654
g3
(g105
g5
NtRp655
(dp656
g95
Nsg98
I01
sg85
g158
sg91
(lp657
g3
(g105
g5
NtRp658
(dp659
g95
Nsg98
I01
sg85
g158
sg91
(lp660
g163
asg93
(lp661
sbasg93
(lp662
sbasg93
(lp663
sbag3
(g105
g5
NtRp664
(dp665
g95
Nsg98
I00
sg85
g120
sg91
(lp666
g634
ag638
ag642
asg93
(lp667
(lp668
g192
ag3
(g105
g5
NtRp669
(dp670
g95
Nsg98
I01
sg85
g195
sg91
(lp671
g652
asg93
(lp672
sbaa(g135
g198
tp673
asbag655
asg93
(lp674
sbasg634
(lp675
g3
(g105
g5
NtRp676
(dp677
g95
Nsg98
I01
sg85
g154
sg91
(lp678
g3
(g105
g5
NtRp679
(dp680
g95
Nsg98
I01
sg85
g158
sg91
(lp681
g88
asg93
(lp682
sbag3
(g105
g5
NtRp683
(dp684
g95
Nsg98
I01
sg85
g332
sg91
(lp685
g3
(g105
g5
NtRp686
(dp687
g95
Nsg98
I01
sg85
g336
sg91
(lp688
g3
(g105
g5
NtRp689
(dp690
g95
Nsg98
I01
sg85
g195
sg91
(lp691
g88
asg93
(lp692
sbag634
asg93
(lp693
sbasg93
(lp694
sbag652
asg93
(lp695
sbasg3
(g105
g5
NtRp696
(dp697
g95
I6
sg98
I00
sg85
S'dict'
p698
sg91
(lp699
sg93
(lp700
(lp701
g23
ag424
aa(lp702
g31
ag3
(g105
g5
NtRp703
(dp704
g95
Nsg98
I01
sg85
g209
sg91
(lp705
g3
(g105
g5
NtRp706
(dp707
g95
Nsg98
I01
sg85
g108
sg91
(lp708
g3
(g105
g5
NtRp709
(dp710
g95
Nsg98
I00
sg85
g112
sg91
(lp711
g3
(g87
g5
NtRp712
(dp713
g85
g90
sg91
(lp714
sg93
(lp715
sg95
I16
sg96
g31
sg98
I01
sbag631
asg93
(lp716
sbasg93
(lp717
sbasg93
(lp718
sbaa(lp719
g25
ag610
aa(lp720
g29
ag301
aa(lp721
S'n_jobs'
p722
ag3
(g87
g5
NtRp723
(dp724
g85
g90
sg91
(lp725
sg93
(lp726
sg95
Nsg96
I4
sg98
I01
sbaa(lp727
g27
ag207
aasb(lp728
g3
(g105
g5
NtRp729
(dp730
g95
Nsg98
I01
sg85
g154
sg91
(lp731
g163
ag3
(g105
g5
NtRp732
(dp733
g95
Nsg98
I01
sg85
g171
sg91
(lp734
g163
ag3
(g87
g5
NtRp735
(dp736
g85
g90
sg91
(lp737
sg93
(lp738
sg95
I4
sg96
g698
sg98
I01
sbasg93
(lp739
(lp740
g23
ag3
(g105
g5
NtRp741
(dp742
g95
Nsg98
I00
sg85
g91
sg91
(lp743
g163
ag437
asg93
(lp744
sbaa(lp745
g31
ag3
(g105
g5
NtRp746
(dp747
g95
Nsg98
I00
sg85
g91
sg91
(lp748
g163
ag3
(g105
g5
NtRp749
(dp750
g95
Nsg98
I01
sg85
g154
sg91
(lp751
g658
ag3
(g105
g5
NtRp752
(dp753
g95
Nsg98
I01
sg85
g171
sg91
(lp754
g658
ag3
(g87
g5
NtRp755
(dp756
g85
g90
sg91
(lp757
sg93
(lp758
sg95
I3
sg96
g209
sg98
I01
sbag3
(g105
g5
NtRp759
(dp760
g95
Nsg98
I00
sg85
g91
sg91
(lp761
g658
ag3
(g105
g5
NtRp762
(dp763
g95
Nsg98
I01
sg85
g154
sg91
(lp764
g655
ag3
(g105
g5
NtRp765
(dp766
g95
Nsg98
I01
sg85
g171
sg91
(lp767
g655
ag3
(g87
g5
NtRp768
(dp769
g85
g90
sg91
(lp770
sg93
(lp771
sg95
I5
sg96
g108
sg98
I01
sbag3
(g105
g5
NtRp772
(dp773
g95
Nsg98
I00
sg85
g91
sg91
(lp774
g655
ag649
asg93
(lp775
sbasg93
(lp776
sbag658
asg93
(lp777
sbasg93
(lp778
sbasg93
(lp779
sbag163
asg93
(lp780
sbasg93
(lp781
sbaa(lp782
g25
ag3
(g105
g5
NtRp783
(dp784
g95
Nsg98
I00
sg85
g91
sg91
(lp785
g163
ag615
asg93
(lp786
sbaa(lp787
g29
ag3
(g105
g5
NtRp788
(dp789
g95
Nsg98
I00
sg85
g91
sg91
(lp790
g163
ag306
asg93
(lp791
sbaa(lp792
g722
ag3
(g105
g5
NtRp793
(dp794
g95
Nsg98
I00
sg85
g91
sg91
(lp795
g163
ag3
(g105
g5
NtRp796
(dp797
g95
Nsg98
I01
sg85
g154
sg91
(lp798
g3
(g105
g5
NtRp799
(dp800
g95
Nsg98
I01
sg85
g158
sg91
(lp801
g88
asg93
(lp802
sbag3
(g105
g5
NtRp803
(dp804
g95
Nsg98
I01
sg85
g332
sg91
(lp805
g3
(g105
g5
NtRp806
(dp807
g95
Nsg98
I01
sg85
g336
sg91
(lp808
g3
(g105
g5
NtRp809
(dp810
g95
Nsg98
I01
sg85
g195
sg91
(lp811
g88
asg93
(lp812
sbag723
asg93
(lp813
sbasg93
(lp814
sbag163
asg93
(lp815
sbasg93
(lp816
sbaa(lp817
g27
ag3
(g105
g5
NtRp818
(dp819
g95
Nsg98
I00
sg85
g91
sg91
(lp820
g163
ag213
asg93
(lp821
sbaasbag88
asg93
(lp822
sbasg638
(lp823
g3
(g105
g5
NtRp824
(dp825
g95
Nsg98
I01
sg85
g154
sg91
(lp826
g3
(g105
g5
NtRp827
(dp828
g95
Nsg98
I01
sg85
g158
sg91
(lp829
g88
asg93
(lp830
sbag3
(g105
g5
NtRp831
(dp832
g95
Nsg98
I01
sg85
g332
sg91
(lp833
g3
(g105
g5
NtRp834
(dp835
g95
Nsg98
I01
sg85
g336
sg91
(lp836
g3
(g105
g5
NtRp837
(dp838
g95
Nsg98
I01
sg85
g195
sg91
(lp839
g88
asg93
(lp840
sbag638
asg93
(lp841
sbasg93
(lp842
sbag652
asg93
(lp843
sbasg642
(lp844
g3
(g105
g5
NtRp845
(dp846
g95
Nsg98
I01
sg85
g154
sg91
(lp847
g3
(g105
g5
NtRp848
(dp849
g95
Nsg98
I01
sg85
g158
sg91
(lp850
g88
asg93
(lp851
sbag3
(g105
g5
NtRp852
(dp853
g95
Nsg98
I01
sg85
g332
sg91
(lp854
g3
(g105
g5
NtRp855
(dp856
g95
Nsg98
I01
sg85
g336
sg91
(lp857
g3
(g105
g5
NtRp858
(dp859
g95
Nsg98
I01
sg85
g195
sg91
(lp860
g88
asg93
(lp861
sbag642
asg93
(lp862
sbasg93
(lp863
sbag652
asg93
(lp864
sbasg706
(lp865
g762
asg703
(lp866
g749
asg723
(lp867
g796
asg239
(lp868
g280
asg242
(lp869
g3
(g105
g5
NtRp870
(dp871
g95
Nsg98
I01
sg85
g154
sg91
(lp872
g3
(g105
g5
NtRp873
(dp874
g95
Nsg98
I01
sg85
g158
sg91
(lp875
g88
asg93
(lp876
sbag3
(g105
g5
NtRp877
(dp878
g95
Nsg98
I01
sg85
g332
sg91
(lp879
g3
(g105
g5
NtRp880
(dp881
g95
Nsg98
I01
sg85
g336
sg91
(lp882
g3
(g105
g5
NtRp883
(dp884
g95
Nsg98
I01
sg85
g195
sg91
(lp885
g88
asg93
(lp886
sbag242
asg93
(lp887
sbasg93
(lp888
sbag283
asg93
(lp889
sbasg126
(lp890
g3
(g105
g5
NtRp891
(dp892
g95
Nsg98
I01
sg85
g154
sg91
(lp893
g3
(g105
g5
NtRp894
(dp895
g95
Nsg98
I01
sg85
g158
sg91
(lp896
g88
asg93
(lp897
sbag3
(g105
g5
NtRp898
(dp899
g95
Nsg98
I01
sg85
g332
sg91
(lp900
g3
(g105
g5
NtRp901
(dp902
g95
Nsg98
I01
sg85
g336
sg91
(lp903
g3
(g105
g5
NtRp904
(dp905
g95
Nsg98
I01
sg85
g195
sg91
(lp906
g88
asg93
(lp907
sbag126
asg93
(lp908
sbasg93
(lp909
sbag183
asg93
(lp910
sbasg246
(lp911
g3
(g105
g5
NtRp912
(dp913
g95
Nsg98
I01
sg85
g154
sg91
(lp914
g3
(g105
g5
NtRp915
(dp916
g95
Nsg98
I01
sg85
g158
sg91
(lp917
g88
asg93
(lp918
sbag3
(g105
g5
NtRp919
(dp920
g95
Nsg98
I01
sg85
g332
sg91
(lp921
g3
(g105
g5
NtRp922
(dp923
g95
Nsg98
I01
sg85
g336
sg91
(lp924
g3
(g105
g5
NtRp925
(dp926
g95
Nsg98
I01
sg85
g195
sg91
(lp927
g88
asg93
(lp928
sbag246
asg93
(lp929
sbasg93
(lp930
sbag283
asg93
(lp931
sbasg118
(lp932
g180
asg250
(lp933
g3
(g105
g5
NtRp934
(dp935
g95
Nsg98
I01
sg85
g154
sg91
(lp936
g3
(g105
g5
NtRp937
(dp938
g95
Nsg98
I01
sg85
g158
sg91
(lp939
g88
asg93
(lp940
sbag3
(g105
g5
NtRp941
(dp942
g95
Nsg98
I01
sg85
g332
sg91
(lp943
g3
(g105
g5
NtRp944
(dp945
g95
Nsg98
I01
sg85
g336
sg91
(lp946
g3
(g105
g5
NtRp947
(dp948
g95
Nsg98
I01
sg85
g195
sg91
(lp949
g88
asg93
(lp950
sbag250
asg93
(lp951
sbasg93
(lp952
sbag283
asg93
(lp953
sbassS'expr'
p954
g696
sS'idxs_memo'
p955
(dp956
g106
g156
sg207
g160
sg229
g262
sg301
g265
sg122
g326
sg345
g363
sg349
g386
sg353
g407
sg424
g366
sg453
g474
sg456
g501
sg460
g522
sg464
g543
sg130
g564
sg581
g477
sg610
g480
sg631
g652
sg634
g679
sg696
g163
sg638
g827
sg642
g848
sg706
g655
sg703
g658
sg723
g799
sg239
g283
sg242
g873
sg126
g894
sg246
g915
sg118
g183
sg250
g937
ssS'dfs_nodes'
p957
(lp958
g430
ag349
ag353
ag345
ag427
ag424
ag712
ag634
ag638
ag642
ag631
ag709
ag706
ag703
ag587
ag456
ag460
ag464
ag453
ag584
ag581
ag610
ag235
ag242
ag246
ag250
ag239
ag232
ag229
ag301
ag723
ag114
ag122
ag126
ag130
ag118
ag110
ag106
ag207
ag696
asS'params'
p959
(dp960
g23
g345
sg25
g453
sg27
g118
sg29
g239
sg31
g631
ssS'v_expr'
p961
g729
sS'expr_idxs'
p962
g88
sbsg954
g696
sS'pass_expr_memo_ctrl'
p963
I00
sg135
g141
sg44
Nsg959
(dp964
g23
g345
sg25
g453
sg27
g118
sg29
g239
sg31
g631
ssS's_idxs_vals'
p965
g3
(g105
g5
NtRp966
(dp967
g95
Nsg98
I01
sg85
g91
sg91
(lp968
g3
(g105
g5
NtRp969
(dp970
g95
I5
sg98
I00
sg85
g698
sg91
(lp971
sg93
(lp972
(lp973
g23
ag363
aa(lp974
g31
ag652
aa(lp975
g25
ag474
aa(lp976
g29
ag283
aa(lp977
g27
ag183
aasbag3
(g105
g5
NtRp978
(dp979
g95
I5
sg98
I00
sg85
g698
sg91
(lp980
sg93
(lp981
(lp982
g23
ag371
aa(lp983
g31
ag664
aa(lp984
g25
ag486
aa(lp985
g29
ag287
aa(lp986
g27
ag187
aasbasg93
(lp987
sbsS'loss_target'
p988
NsS'installed_rng'
p989
I01
sS'fn'
p990
cHPOlib.cv
main
p991
sbs.