(dp1
S'cv_endtime'
p2
(lp3
F1399982441.9726191
aF1399983485.2318981
aF1399986361.0956049
aF1399992035.557759
aF1400000350.483012
asS'folds'
p4
I1
sS'cv_starttime'
p5
(lp6
F1399978878.570713
aF1399982441.9969771
aF1399983485.25699
aF1399986361.1355269
aF1399992035.604655
aF1400000350.579484
asS'endtime'
p7
(lp8
sS'optimizer'
p9
S'/home/feurerm/HPOlib/Software/HPOlib/optimizers/tpe/random_hyperopt_august2013_mod'
p10
sS'optimizer_time'
p11
(lp12
sS'instance_order'
p13
(lp14
(I0
I0
tp15
a(I1
I0
tp16
a(I2
I0
tp17
a(I3
I0
tp18
a(I4
I0
tp19
a(I5
I0
tp20
asS'max_wallclock_time'
p21
S''
sS'title'
p22
NsS'trials'
p23
(lp24
(dp25
S'status'
p26
I3
sS'std'
p27
cnumpy.core.multiarray
scalar
p28
(cnumpy
dtype
p29
(S'f8'
I0
I1
tRp30
(I3
S'<'
NNNI-1
I-1
I0
tbS'\x00\x00\x00\x00\x00\x00\x00\x00'
tRp31
sS'instance_durations'
p32
cnumpy.core.multiarray
_reconstruct
p33
(cnumpy
ndarray
p34
(I0
tS'b'
tRp35
(I1
(I1
tg29
(S'f8'
I0
I1
tRp36
(I3
S'<'
NNNI-1
I-1
I0
tbI00
S'R\xb8\x1e\x85\xeb\xd5\xab@'
tbsS'instance_results'
p37
g33
(g34
(I0
tS'b'
tRp38
(I1
(I1
tg36
I00
S'\xd8)V\r\xc2\xdc\xd1?'
tbsS'instance_status'
p39
g33
(g34
(I0
tS'b'
tRp40
(I1
(I1
tg29
(S'i8'
I0
I1
tRp41
(I3
S'<'
NNNI-1
I-1
I0
tbI00
S'\x03\x00\x00\x00\x00\x00\x00\x00'
tbsS'params'
p42
ccollections
OrderedDict
p43
((lp44
(lp45
S'-max_features'
p46
aS'0.438281360031'
p47
aa(lp48
S'-min_samples_leaf'
p49
aS'4'
aa(lp50
S'-min_samples_split'
p51
aS'5'
aa(lp52
S'-n_estimators'
p53
aS'57'
p54
aa(lp55
S'-n_jobs'
p56
aS'4'
aa(lp57
S'-seed'
p58
aS'57'
p59
aatRp60
sS'result'
p61
g28
(g30
S'\xd8)V\r\xc2\xdc\xd1?'
tRp62
sS'duration'
p63
g28
(g30
S'R\xb8\x1e\x85\xeb\xd5\xab@'
tRp64
sS'test_error'
p65
Fnan
sa(dp66
S'status'
p67
I3
sS'std'
p68
g28
(g30
S'\x00\x00\x00\x00\x00\x00\x00\x00'
tRp69
sS'instance_durations'
p70
g33
(g34
(I0
tS'b'
tRp71
(I1
(I1
tg29
(S'f8'
I0
I1
tRp72
(I3
S'<'
NNNI-1
I-1
I0
tbI00
S'\xc3\xf5(\\\x8fK\x90@'
tbsS'instance_results'
p73
g33
(g34
(I0
tS'b'
tRp74
(I1
(I1
tg72
I00
S'r\xc2\x84\xd1\xacl\xd2?'
tbsS'instance_status'
p75
g33
(g34
(I0
tS'b'
tRp76
(I1
(I1
tg29
(S'i8'
I0
I1
tRp77
(I3
S'<'
NNNI-1
I-1
I0
tbI00
S'\x03\x00\x00\x00\x00\x00\x00\x00'
tbsS'params'
p78
g43
((lp79
(lp80
S'-max_features'
p81
aS'0.658772968701'
p82
aa(lp83
S'-min_samples_leaf'
p84
aS'9'
aa(lp85
S'-min_samples_split'
p86
aS'10'
p87
aa(lp88
S'-n_estimators'
p89
aS'9'
aa(lp90
S'-n_jobs'
p91
aS'4'
aa(lp92
S'-seed'
p93
aS'18'
p94
aatRp95
sS'result'
p96
g28
(g30
S'r\xc2\x84\xd1\xacl\xd2?'
tRp97
sS'duration'
p98
g28
(g30
S'\xc3\xf5(\\\x8fK\x90@'
tRp99
sS'test_error'
p100
Fnan
sa(dp101
S'status'
p102
I3
sS'std'
p103
g28
(g30
S'\x00\x00\x00\x00\x00\x00\x00\x00'
tRp104
sS'instance_durations'
p105
g33
(g34
(I0
tS'b'
tRp106
(I1
(I1
tg29
(S'f8'
I0
I1
tRp107
(I3
S'<'
NNNI-1
I-1
I0
tbI00
S'\xecQ\xb8\x1e\x85v\xa6@'
tbsS'instance_results'
p108
g33
(g34
(I0
tS'b'
tRp109
(I1
(I1
tg107
I00
S'\x01\x17d\xcb\xf2u\xd2?'
tbsS'test_error'
p110
Fnan
sS'params'
p111
g43
((lp112
(lp113
S'-max_features'
p114
aS'0.706750631048'
p115
aa(lp116
S'-min_samples_leaf'
p117
aS'6'
aa(lp118
S'-min_samples_split'
p119
aS'6'
aa(lp120
S'-n_estimators'
p121
aS'30'
p122
aa(lp123
S'-n_jobs'
p124
aS'4'
aa(lp125
S'-seed'
p126
aS'66'
p127
aatRp128
sS'result'
p129
g28
(g30
S'\x01\x17d\xcb\xf2u\xd2?'
tRp130
sS'duration'
p131
g28
(g30
S'\xecQ\xb8\x1e\x85v\xa6@'
tRp132
sS'instance_status'
p133
g33
(g34
(I0
tS'b'
tRp134
(I1
(I1
tg29
(S'i8'
I0
I1
tRp135
(I3
S'<'
NNNI-1
I-1
I0
tbI00
S'\x03\x00\x00\x00\x00\x00\x00\x00'
tbsa(dp136
S'status'
p137
I3
sS'std'
p138
g28
(g30
S'\x00\x00\x00\x00\x00\x00\x00\x00'
tRp139
sS'instance_durations'
p140
g33
(g34
(I0
tS'b'
tRp141
(I1
(I1
tg29
(S'f8'
I0
I1
tRp142
(I3
S'<'
NNNI-1
I-1
I0
tbI00
S'\xc3\xf5(\\\xcf)\xb6@'
tbsS'instance_results'
p143
g33
(g34
(I0
tS'b'
tRp144
(I1
(I1
tg142
I00
S'5\xd2Ry;\xc2\xd2?'
tbsS'instance_status'
p145
g33
(g34
(I0
tS'b'
tRp146
(I1
(I1
tg29
(S'i8'
I0
I1
tRp147
(I3
S'<'
NNNI-1
I-1
I0
tbI00
S'\x03\x00\x00\x00\x00\x00\x00\x00'
tbsS'params'
p148
g43
((lp149
(lp150
S'-max_features'
p151
aS'0.862375615317'
p152
aa(lp153
S'-min_samples_leaf'
p154
aS'4'
aa(lp155
S'-min_samples_split'
p156
aS'5'
aa(lp157
S'-n_estimators'
p158
aS'45'
p159
aa(lp160
S'-n_jobs'
p161
aS'4'
aa(lp162
S'-seed'
p163
aS'50'
p164
aatRp165
sS'result'
p166
g28
(g30
S'5\xd2Ry;\xc2\xd2?'
tRp167
sS'duration'
p168
g28
(g30
S'\xc3\xf5(\\\xcf)\xb6@'
tRp169
sS'test_error'
p170
Fnan
sa(dp171
S'status'
p172
I3
sS'std'
p173
g28
(g30
S'\x00\x00\x00\x00\x00\x00\x00\x00'
tRp174
sS'instance_durations'
p175
g33
(g34
(I0
tS'b'
tRp176
(I1
(I1
tg29
(S'f8'
I0
I1
tRp177
(I3
S'<'
NNNI-1
I-1
I0
tbI00
S'\x85\xebQ\xb8^<\xc0@'
tbsS'instance_results'
p178
g33
(g34
(I0
tS'b'
tRp179
(I1
(I1
tg177
I00
S't~\x8a\xe3\xc0\xab\xd2?'
tbsS'test_error'
p180
Fnan
sS'params'
p181
g43
((lp182
(lp183
S'-max_features'
p184
aS'0.782864871456'
p185
aa(lp186
S'-min_samples_leaf'
p187
aS'5'
aa(lp188
S'-min_samples_split'
p189
aS'5'
aa(lp190
S'-n_estimators'
p191
aS'81'
p192
aa(lp193
S'-n_jobs'
p194
aS'4'
aa(lp195
S'-seed'
p196
aS'59'
p197
aatRp198
sS'result'
p199
g28
(g30
S't~\x8a\xe3\xc0\xab\xd2?'
tRp200
sS'duration'
p201
g28
(g30
S'\x85\xebQ\xb8^<\xc0@'
tRp202
sS'instance_status'
p203
g33
(g34
(I0
tS'b'
tRp204
(I1
(I1
tg29
(S'i8'
I0
I1
tRp205
(I3
S'<'
NNNI-1
I-1
I0
tbI00
S'\x03\x00\x00\x00\x00\x00\x00\x00'
tbsa(dp206
S'status'
p207
I2
sS'std'
p208
Fnan
sS'instance_durations'
p209
g33
(g34
(I0
tS'b'
tRp210
(I1
(I1
tg29
(S'f8'
I0
I1
tRp211
(I3
S'<'
NNNI-1
I-1
I0
tbI00
S'\x00\x00\x00\x00\x00\x00\xf8\x7f'
tbsS'instance_results'
p212
g33
(g34
(I0
tS'b'
tRp213
(I1
(I1
tg211
I00
S'\x00\x00\x00\x00\x00\x00\xf8\x7f'
tbsS'test_error'
p214
Fnan
sS'params'
p215
g43
((lp216
(lp217
S'-max_features'
p218
aS'0.853205891256'
p219
aa(lp220
S'-min_samples_leaf'
p221
aS'8'
aa(lp222
S'-min_samples_split'
p223
aS'2'
aa(lp224
S'-n_estimators'
p225
aS'93'
p226
aa(lp227
S'-n_jobs'
p228
aS'4'
aa(lp229
S'-seed'
p230
aS'19'
p231
aatRp232
sS'result'
p233
Fnan
sS'duration'
p234
Fnan
sS'instance_status'
p235
g33
(g34
(I0
tS'b'
tRp236
(I1
(I1
tg29
(S'i8'
I0
I1
tRp237
(I3
S'<'
NNNI-1
I-1
I0
tbI00
S'\x02\x00\x00\x00\x00\x00\x00\x00'
tbsasS'total_wallclock_time'
p238
F21467.660000000003
sS'experiment_name'
p239
S'pfahringer_cv_rank_perm_random_hyperopt_august2013_mod'
p240
sS'starttime'
p241
(lp242
F1399978877.6968019
as.