(dp1
S'trials'
p2
ccopy_reg
_reconstructor
p3
(chyperopt.base
Trials
p4
c__builtin__
object
p5
NtRp6
(dp7
S'attachments'
p8
(dp9
sS'_trials'
p10
(lp11
(dp12
S'refresh_time'
p13
cdatetime
datetime
p14
(S'\x07\xde\x05\r\x0c\x00)\x0f\x13`'
tRp15
sS'book_time'
p16
g14
(S'\x07\xde\x05\r\x0b\x01\x12\x08\xb2\x90'
tRp17
sS'misc'
p18
(dp19
S'tid'
p20
I0
sS'idxs'
p21
(dp22
S'max_features'
p23
(lp24
I0
asS'min_samples_split'
p25
(lp26
I0
asS'seed'
p27
(lp28
I0
asS'n_estimators'
p29
(lp30
I0
asS'min_samples_leaf'
p31
(lp32
I0
assS'cmd'
p33
(S'domain_attachment'
p34
S'FMinIter_Domain'
p35
tp36
sS'vals'
p37
(dp38
g23
(lp39
F0.4382813600307629
asg25
(lp40
F5
asg27
(lp41
F57
asg29
(lp42
F57
asg31
(lp43
F4
assS'workdir'
p44
NssS'state'
p45
I2
sg20
I0
sS'exp_key'
p46
NsS'version'
p47
I0
sS'result'
p48
(dp49
S'status'
p50
S'ok'
p51
sS'loss'
p52
F0.27909899999999999
ssS'owner'
p53
NsS'spec'
p54
Nsa(dp55
g13
g14
(S'\x07\xde\x05\r\x0c\x12\x05\x03\xc8\xc0'
tRp56
sg16
g14
(S'\x07\xde\x05\r\x0c\x00)\x0f2\xa0'
tRp57
sg18
(dp58
g20
I1
sg21
(dp59
g23
(lp60
I1
asg25
(lp61
I1
asg27
(lp62
I1
asg29
(lp63
I1
asg31
(lp64
I1
assg33
(g34
g35
tp65
sg37
(dp66
g23
(lp67
F0.6587729687010927
asg25
(lp68
F10
asg27
(lp69
F18
asg29
(lp70
F9
asg31
(lp71
F9
assg44
Nssg45
I2
sg20
I1
sg46
Nsg47
I0
sg48
(dp72
g50
g51
sg52
F0.287883
ssg53
Nsg54
Nsa(dp73
g13
g14
(S'\x07\xde\x05\r\r\x06\x01\x01\xe0x'
tRp74
sg16
g14
(S'\x07\xde\x05\r\x0c\x12\x05\x03\xe8\x00'
tRp75
sg18
(dp76
g20
I2
sg21
(dp77
g23
(lp78
I2
asg25
(lp79
I2
asg27
(lp80
I2
asg29
(lp81
I2
asg31
(lp82
I2
assg33
(g34
g35
tp83
sg37
(dp84
g23
(lp85
F0.70675063104824554
asg25
(lp86
F6
asg27
(lp87
F66
asg29
(lp88
F30
asg31
(lp89
F6
assg44
Nssg45
I2
sg20
I2
sg46
Nsg47
I0
sg48
(dp90
g50
g51
sg52
F0.28844900000000001
ssg53
Nsg54
Nsa(dp91
g13
g14
(S'\x07\xde\x05\r\x0e(#\x08\xe9@'
tRp92
sg16
g14
(S'\x07\xde\x05\r\r\x06\x01\x02\x0bp'
tRp93
sg18
(dp94
g20
I3
sg21
(dp95
g23
(lp96
I3
asg25
(lp97
I3
asg27
(lp98
I3
asg29
(lp99
I3
asg31
(lp100
I3
assg33
(g34
g35
tp101
sg37
(dp102
g23
(lp103
F0.8623756153173634
asg25
(lp104
F5
asg27
(lp105
F50
asg29
(lp106
F45
asg31
(lp107
F4
assg44
Nssg45
I2
sg20
I3
sg46
Nsg47
I0
sg48
(dp108
g50
g51
sg52
F0.293105
ssg53
Nsg54
Nsa(dp109
g13
g14
(S'\x07\xde\x05\r\x10;\n\x085\x90'
tRp110
sg16
g14
(S'\x07\xde\x05\r\x0e(#\t3x'
tRp111
sg18
(dp112
g20
I4
sg21
(dp113
g23
(lp114
I4
asg25
(lp115
I4
asg27
(lp116
I4
asg29
(lp117
I4
asg31
(lp118
I4
assg33
(g34
g35
tp119
sg37
(dp120
g23
(lp121
F0.78286487145630235
asg25
(lp122
F5
asg27
(lp123
F59
asg29
(lp124
F81
asg31
(lp125
F5
assg44
Nssg45
I2
sg20
I4
sg46
Nsg47
I0
sg48
(dp126
g50
g51
sg52
F0.29173300000000002
ssg53
Nsg54
NsasS'_exp_key'
p127
NsS'_dynamic_trials'
p128
(lp129
g12
ag55
ag73
ag91
ag109
asS'_ids'
p130
c__builtin__
set
p131
((lp132
I0
aI1
aI2
aI3
aI4
atRp133
sbsS'domain'
p134
g3
(chyperopt.fmin
Domain
p135
g5
NtRp136
(dp137
g33
(g34
g35
tp138
sS'name'
p139
NsS's_new_ids'
p140
g3
(chyperopt.pyll.base
Literal
p141
g5
NtRp142
(dp143
g139
S'literal'
p144
sS'pos_args'
p145
(lp146
sS'named_args'
p147
(lp148
sS'o_len'
p149
I7
sS'_obj'
p150
S'new_ids'
p151
sS'pure'
p152
I01
sbsS'vh'
p153
g3
(chyperopt.vectorize
VectorizeHelper
p154
g5
NtRp155
(dp156
S'take_memo'
p157
(dp158
g3
(chyperopt.pyll.base
Apply
p159
g5
NtRp160
(dp161
g149
Nsg152
I01
sg139
S'float'
p162
sg145
(lp163
g3
(g159
g5
NtRp164
(dp165
g149
Nsg152
I00
sg139
S'hyperopt_param'
p166
sg145
(lp167
g3
(g141
g5
NtRp168
(dp169
g139
g144
sg145
(lp170
sg147
(lp171
sg149
I4
sg150
g27
sg152
I01
sbag3
(g159
g5
NtRp172
(dp173
g149
Nsg152
I00
sg139
S'quniform'
p174
sg145
(lp175
g3
(g141
g5
NtRp176
(dp177
g139
g144
sg145
(lp178
sg147
(lp179
sg149
Nsg150
I1
sg152
I01
sbag3
(g141
g5
NtRp180
(dp181
g139
g144
sg145
(lp182
sg147
(lp183
sg149
Nsg150
I100
sg152
I01
sbag3
(g141
g5
NtRp184
(dp185
g139
g144
sg145
(lp186
sg147
(lp187
sg149
Nsg150
I1
sg152
I01
sbasg147
(lp188
(S'rng'
p189
g3
(g141
g5
NtRp190
(dp191
g139
g144
sg145
(lp192
sg147
(lp193
sg149
Nsg150
cnumpy.random
__RandomState_ctor
p194
(tRp195
(S'MT19937'
p196
cnumpy.core.multiarray
_reconstruct
p197
(cnumpy
ndarray
p198
(I0
tS'b'
tRp199
(I1
(I624
tcnumpy
dtype
p200
(S'u4'
I0
I1
tRp201
(I3
S'<'
NNNI-1
I-1
I0
tbI00
S'l\xfe\xbbK\x15\x9a\xfe\x97\xa8\x11\x02\x0e2\x8aHC\xd6l\x15\x94\xb1\xef\\\x0f\xbb$\xe8\xa7\x95\x18\x96\x16\xed4\x99\x0f\x11 g\xf7\x1f\x14\x0c\xcb\x02\x08^\xd2l\x99\xe3\xeaH\x93\x99n0\xb0\xa5\xa3\xc2\xbb\r\x0c\x85\xd5\x08XU\xc9l\x16\xc1\xea\xfab\x1es\x01\x9bdE\xd3\xe2\x88\xf3\xda\x9cy\x86#\x8b\x13!\xe6G\xeb\xe8\xf8dvjn\x03y\xc8\xd1\xc9\xc4\xb2\x13\xbd\xb7^\x03\x82\xdbM\xef\xa8\xd7\x93;6\x9e\x12\x10S\x8b\xd76\xc8\x81\x1c\xa3\xa7\x13\xcf\xa3\x07\xb4\x84\x8f\xa1\xc3\xc80\xc6\x06\xba2^\x8af\x06j\xf6\x0fI\xac]j^>\'s\x96\xf3\x01\tI}Z\x1f\xb7,\x03\xf3\xc1\x98\xfc\xac\xbd\x99\xb6d\xc1\xda\xd8\xa3?\xbe\xb0\x8an\xe9\xe4\x1f].9\x0bY\xf1p\x9f\xf3\x0c\x1b.\xf6\xdcRb.\x90\xe0[\xef<\x1c;9(l\xb7`\xcd\xfa\xf7\x8bo\xf3\xfb]l\xc1\x17\x8a\x19\x1f\xa7\xd3\xda\x7f\xbf\xe8\x8fOY.\x13+\xc9d\x8c\xf2\xa4\xfc\xc6\x01\xa9sP\xd9w\x18Eo\x8b]W\xb5<q>\xef\x1b\xa2\xda\xdf\x0b\x82L\x9a\xf5$\xb8\xc5r\x14\xe8~\x9a]\xf9\x86)\x92\xfb\x9e\xb1A\x91\x13]\xcfs\xc8\x8d\t\x9e\xde\xc5\xd7g\x86\xf3\xa7E\x0f\t\xb7+\x81\xe8\xd9@\xf2\x13Qg\xdd\xd5\x89\xc2\xd2@\xd7\xcfo\x87~ZJGjZc\xb6\xdb\x92\x99\xfe\x81\x1e\x01\x8f\x83j\xe6=8\xf7\xda\x95\xcb\x08\x19\xda\xcd\xb5Q\xbd\x8c`+f\xbd\xa7x\x17\xb1[i\xb4\xddY\xadi\xfa\xf7W\x18\x81\x91\x7f\x1b\x0b8\x1a\xe5]40\x80+\xd6\xb9\xe6\x88\x90~\xd5\'\x8a\xa7\x95\x9b\x82\xbb\xa2\xbc\xc1\x11\x81\xe6mk\x17\xbbB\x08\xa3n\xb1\x9f*\xcd\x9f\xc6\xbe)$\xaa\xb8rN\xb0\x08\xc4D\x872\xf3\x1f\xbaH\x91\xfc\x12\xaf&w\xeat\x1bJ<vJ\xae\x8a\xf6\xcfK\xa6\x06b\xf3o\x16\xfed\x91S\x8f\x0eIa@\xffeI93\xf0\xfa\x9bA\xa0\xb5\xe4\xafVF\'\xdc\xbc7\xf1\xde\xc3L\x98\x19$\xda\xa8r\xf8h:&[\xe4\xde\xbf\xd0\xa7\x97\xbf\xf1s\xfar\xb2k\x97M\x0f\xddc\x13@\xc2T\xfa\xb0\xf9\xe5@\xe8{\xee\xee\xcd\xaa$\x92\x9a\x1d]\x05\x0eI\xa8\x06)z\xba\xd2\xca\xef\xdf\xfc\x98\r\xd3\x11\xab\x81P\xe7\x1e\xedH\xe2\xde\xc9\x86\xe9\x13\xc8qM\xe6\xea\xe2w\x85M\xe0r\xd12@\xd9\xa2\xd2\x82\x1c\x8c%\x81#c|\x0b\xbf\xd7S\x816\x8a\x9b\xdf\x9e\xab\x81- 2P{~\x8a\xc5\xf5\xe1\xc9\xa9\x05\x0f\x9c\xc9"]\xfe\xbe\xd7\x0b\xf0&\x0b\x7f`\rp\x8b\xf0\xab\xbauo\xdec\xa8}I\xb6}i\xf5K\xc6G\xc6-\xc0I\xa3p;\xa3\xafG\xab^\xf2\xf8Z]XrU\x1fiT}wG\x8c\x98\xe8\xdeQ=#\x96\xf6:\xd8n\x0e\x8f\x043\xda\xcf%\xec\xbdYm\xafX\x12\x0b\xe4\x01B\xd6\xa3\x1ca\xcfbd\x1e\x08\xc4\xac\xe0h=\x91\xcc\x94\xee\xc73\xfb\xce\xb4g\x85+\x86 6\xcb\xa32\xfaJ@\x81?y+|Doj\xb1QOTl\xce\x88\x88\xec\x81\xd9\x07VMI\x87\x08\xff\xbf\x0b\xed\r}q\xdf\xf7\xb6\xb2,\xc3\xa9v.\xf9u\xaa\xb5\xcdrZ\xa3"y\x03\x08n\xc9cv{1\xe2\xb3L\xd1\xc8\xa9\xdc\xcaj/;^\x99:\xcc\xcd\xf2\x1f\xda\x18\xb1\xd6\xe3m\xd8\xf8t\xe8\xa4\xe3\x19<\xff\xb6\xaa\xcb\x97*\xbbD\xb3g\xc77\xa1\x88"\xdb\xd6U\xfc\x90\x0f\xeb\x89}GB\xecm\x93\x9d\xd8\x1d\xa9\xca\x1e\x87\xd5\xe2=P\xd5\x81\xa8\x8e\xd1,\x89\x87\xbe\xc2\xfe\xcb\x18\xeb\xa4i\xe3N\xfc\x9cu\x88\xaal\xa3"\x8a|\xb1}\xd0\xba\xda\xc7y\x83i2\x0cp\xd55\x12\xe5,\xf8\xb5k\xf73pkTT\x98\xed\x84\xf2\xe2g\x96\x0f\xfa\x1c\x01\xcbJ\xebp\xad\x1d\xe0{\xf9\xffb\xdd~\xe12\x8eY\xbeH\xd6mW\xd0\x02\'k\xcf(\xa50<Z\x18\xcb\xa8\xfe~\xb2G\xe4\xcd\x7f\x04}\x8a\xbcWP\xa1\xb1.I\xcc\xd7\x9cH@\xd6\x02\x97\xea\xa3mL\xb8\x0e\x94?\x16\xf2g\xa5\x05\x95\xf7T\xdf\xe3\xefkO\xbc\x9a\x9dhh4\xb8\xd4\x1e0\x9ew\x97q\x0b\xd17d\xa1\x96\xbd\xe3<|\x83\xd3N\xc8\x13\xd5\xcav.+\xa0\xc3\xb2\xc6\x8e\x8d8\x01\x8c\xa9~E\xbf\xbd\x83\xd4\x7f#G3\x8e_zse\xfc\x9a\x9f\xa1\xd9\x92\xc4\xe5\xb92\xc7\xbe\xf6f\xe5\xad\xf0y\x0b\xaa\xe6\xeeWI\xc9^E\x9a\xfc\x7f\xc3\xc9\x16\xd8\xe8H\x00<\x82\xc8\xa26&\xdfz\x906\xcc\'\x80\xfa\xc3\x11\xd8\xcdo\xef\r\xa1Q-=\x7f\xae\xc2\x06\xef\x88\xbf\x12\x8cYX\x1a\xc1\x01\xef\xbeU(a\xb6`h\r%|\xf8\xf5\x8c\x90\xfaz\x8fl\xb1\x7f\xd3C_\x90|+\xce\x0cq\x17\x8a\x1d\xf6\xdb\xec\xe4\xe5\xb9\xa2\xbe\xa6\x93q\x8bN\x95V\x81*\xb8~\xedn\xbe\xd7M\x14 \xe6`[\xf5\xd6Rf\xa9\xe1VNA"\x0c\xe8\x93\xe2UP\x19\xefd#\x1a\xc0!\xb2\x03\x03M\xc9\x9f\xdc]\xb1W\x1e\xd3}\x89rtK\x0c\x00]\x0e\xc1\xbf{#\x99\x00>`\x1c`\xb6b\x8ae[\x0f\xc7\x1f\xc0`\x14\xa0\xc1\xd3\x15"X\x0fL\xfb\xa7\xab\xd1\xe3QG\xdb\xb7\x81\x19\x01b\xe8\x0f\t\xf2\xa1\x93\xe62\xc4\xec\x1a_\xce\xc5\x82@3E\x06\xae\xd4\xd6X7K\xbb\x1b\xb8\x02\xefgiZ}Jd\x8c\x93p\xb5[\xd3&\xb1\xa1\x01\x98+\xdet\xf5A\xd6\x92^\x0f\xe0\xb2\n\xf79\xc7B"\xd7\xef1\x05\x90\x17\xaf\xf0\x17.\x0b2\x91\xe4\x13\xf0v\x0cB\x01\xe1\xa4\n&\xa8\xff\x1b\xab\x95\x7f\x84\x88S%\xa4\x8f\xeaGb\x9c\xc0\x17\xbc\x9a\x1cc\xcaD\xb7}\xd0\xf6\xce\xc6`\xafY\x0eO\x1a\xee\xf1\xdb1\x8e\x8eX\x98\\z.z\x9b\xc9\x00v\xb8\xbbQ\xed\xa7\x82\xb1\xf9\xd13\xe5\x9d2\x18\xe2^+\xca\xed9\x87\x02\xf9l\xbcv\xe1E\xd6\xa8\x9b#\xd8\xad\x85\xe6\xae\xa5\r\xbd\x83+\xdbC0m\x13\xa7\\\x02~\x81\x96\x00\xdf\x9f$\x98\xb9*\xb2i\x05\x92\xcc*\xdf4\xca1\x0c\xd6\xcd\xc8I\xdff\x9d\xe6\x7f\x1c\xc6I\x1cP\x0b\x9dT\xa2n\x9c\xedi[\'a\x0eRM\x1f\r\x08\x0c\xd5ymY\xa3\xe4-\xaf\xfd\xfdU7\x93wh3\xc3:\x952\xaeA\xe5\xa2\xa1\xb3\x95\xce7\x1a]w\xa2\xca\xb6\xf6~\xee\x18i\xa4\xd9\xd8\xee\xe4_\xf1\x97Wa}t3\xba\x93\xa6>\xcf\xdf\xa6\xeb\x14a\xf7X\xe9\x07#\xe0Q\x80\xe7\xf8\xd4\x14\xa9|\x1a\xe2\xd5y`\xb2\xbe\xbc\x0b\xef}\xe67\xac\xcd=byz\xb6\xb4\x04\xb2v\xf6\xff\x0fO\xb0\x9dd?\xd9\xb8\x87\xf1"\xda\xb9\x19\xdcM\x05\xcb\x16\x04"\x17\x0cz&g\xfe\xa2\xc0\x00\xebT\xc8DG\xe34\x07\xc0\xf1\xb4\x1e\x8c\n\x9f\x01\xce\xa4\xf0b\x91\n\xa0\xf3\xb1\xfa\x87\x1c\xe3\x86\xbd\x94\x1a;\x141h:\xd8\xbf\xfe1\x19M6\xfe&\xe3`w\xc3\xe9\xb7V\xa1\x85\x1c\x05\x88\x98k\xf3\xb4\xbe\x0f\x14z\xfc\xd6\x981\xc0V\xa7\x80\x94\xb2+l!\x97\xfc\xf3\xa2\xd0\xc4\x19)\xdb~#\xce\xe7\x95\xddD\x060\xd6\x10\xecP\x7fA\xf9>^\x071\x98\x15\xc4\xf5\xb5\xb4\x19\xf7\xb2\xbaX\x02\xd4\xbb\xcfR\xd0\x83-\xd5\xccL\x17\xb5\x9f\xd3\x07(\xbdC\xa5\xd9%U\xe1Ep3\xbc\xbeB\xfbcI\xd9\xf7\xba\x06\xa9Z\x15\xa0\x03WC\xaa?L\xbf\xa9\xbbm\xde\xc4\x8f"\xd6\x1el\x9cY\xfa\xc1\\\xe6\x94k\xe5U5\xa1B\xcf\'\xd4T\xa2q\nGn\xce1k\x9eO\xc5\x9d\x03-<2]a]v\x02\xc5\xd9\xa2\xfa\xdb\x89\x0b\x91\x12e"\xec*\xd9\xc8\xa5fW\x87\xdd[Y\xddVXO\xe7\xef\x14\x06T\xc3\x915\xa7]L\x03\xd99\\\xb2!\xd9S\xcc\x0b5R\x8a+?\x8f5xpB\xd19~\xe2\xa5\xc69\x9b\x9411Or\xf5\tD\xdf\x16+\x9cn\'\xbc\x0c\x1c\x0ek\xf6usS\xdfU\xdb\xb0\xcb\x91\x928\x15*c\x08\xfa\xa7c2\xc7r\r2\x862\xb2{a\xfb\x96\x99\xf3{\xda\xd5`\xc6\xc5mA@\xf7\x1fj\x97\x16\xbb\xa5N\r\tE\xe1\x9b\xd9X\xbbh\xb9\xf9\\/\x90\x10\x88\tJ^\x12\x10\x11\xe6\x05\x1f\xcc|\xfa-\x83>\xfa\xbfKn\x90\x07X5\x9ak\xe5\x1e=\xb2+\x17\x06\x14\x18E\x1e\x1f\xac\x18\xe3\x05&5\xf0\xcfc\xbf\x120\x12n\x90\x1a \x8d\xc0\xa1\xbf>\xf9\xa9\xa2\x82o\xc3r\xeatX.\xa5\xe9\xe3C\x0b\x84\xb6\xa9\xf8nla\xe1\xe6\xdd\xd6\xc7\xaa\xe7\xf6\x9c\xe0\x8d\xb9t\xc1\xd9\xaf\xbd\xab\xc8\x131\n\xdb\xf7m\x92!CV"\x13D\xac#|"\x0fN]\xdd\xc9"\xd5\xfe\tz\xf9\xbf\xc1NW\xae\x0f\xa6\\\x81\x15\x1d^\x8c\x0b\x17\\\x9coQ\xa6\xba\xcc\xc4\xa9\xd6w\xb9E:*{\xb9)?\x87\x97\xe0\x00\xb2\xe82\x90d\x96<\x88\xcb"\xbf\x94f5\xdc\xbf"\xa3vx\x1e|\xf8\xa8r(/QX\xd7\xbc\xd8\x99\xda ]\x85`\\e\xee\xfb\x8d^\x99e\x88}\xc8\x06\x98\xa0o\xd4\x9b\xd7P\xcd\x1c\xde\xd3\xd5\x1b\x13\xb4\x134^\xf0\x98O7`R\x92M@\xe8e\x0f[#_{F\xcb\x03\xecM\xe1w\xfdot\xb1YQ\xe3K\xf0\xd5\x1dt0\x91C&\'x\x1f@\xea\xb0WF\xce\xbb\x10B\x84\xf9\xfe\'\x16z\x0c\x9e\\\xaf\x957\xed\xfb:\x01\x04@\xc6MV\x18\xa1\xe6|\x95\x93\xc3Z\x19\xa5\x99v\xa5)w>B\xa3\x99G\x11jBg\xb6{\x96\xb8\xe8\xb8\xbbi\x9a`\x8d\n\xbe\x9a4\xc5\x84\xe3\x90\xe6\xa3)\x1b\xeb\xa2\xc7\x04^G\x9d\xb9\xfa\xd8\xe4\xa6\xeb\x18\x0e\x9a\xf3S\x1dR\xd4\xbb\xfe2\xa0\x9f\x196VzQ\x07\x81\xa5i\xbf8D\xd3=~\xd9\xd85U1\xd0\x7f\xca\xbe.\x06O\xbfN,\x18\xda$\xab\xb9(\xafg\x8a+\xdcp\x08^\xcc\x1e_'
tbI10
I0
F0
tbsg152
I01
sbtp202
asbasg147
(lp203
sbasg147
(lp204
sb(lp205
g3
(g159
g5
NtRp206
(dp207
g149
Nsg152
I01
sg139
S'idxs_take'
p208
sg145
(lp209
g3
(g159
g5
NtRp210
(dp211
g149
Nsg152
I01
sg139
S'array_union'
p212
sg145
(lp213
g3
(g159
g5
NtRp214
(dp215
g149
Nsg152
I01
sg139
g212
sg145
(lp216
g3
(g159
g5
NtRp217
(dp218
g149
Nsg152
I01
sg139
g212
sg145
(lp219
g142
asg147
(lp220
sbasg147
(lp221
sbasg147
(lp222
sbag3
(g159
g5
NtRp223
(dp224
g149
Nsg152
I01
sg139
S'idxs_map'
p225
sg145
(lp226
g210
ag3
(g141
g5
NtRp227
(dp228
g139
g144
sg145
(lp229
sg147
(lp230
sg149
I5
sg150
g162
sg152
I01
sbag3
(g159
g5
NtRp231
(dp232
g149
Nsg152
I00
sg139
g145
sg145
(lp233
g210
ag3
(g159
g5
NtRp234
(dp235
g149
Nsg152
I01
sg139
g208
sg145
(lp236
g3
(g159
g5
NtRp237
(dp238
g149
Nsg152
I01
sg139
g212
sg145
(lp239
g210
asg147
(lp240
sbag3
(g159
g5
NtRp241
(dp242
g149
Nsg152
I00
sg139
g174
sg145
(lp243
g176
ag180
ag184
asg147
(lp244
(lp245
S'size'
p246
ag3
(g159
g5
NtRp247
(dp248
g149
Nsg152
I01
sg139
S'len'
p249
sg145
(lp250
g237
asg147
(lp251
sbaa(g189
g3
(g141
g5
NtRp252
(dp253
g139
g144
sg145
(lp254
sg147
(lp255
sg149
Nsg150
g195
sg152
I01
sbtp256
asbag210
asg147
(lp257
sbasg147
(lp258
sbasg147
(lp259
sbag214
asg147
(lp260
sbasg3
(g159
g5
NtRp261
(dp262
g149
Nsg152
I01
sg139
S'int'
p263
sg145
(lp264
g160
asg147
(lp265
sb(lp266
g3
(g159
g5
NtRp267
(dp268
g149
Nsg152
I01
sg139
g208
sg145
(lp269
g214
ag3
(g159
g5
NtRp270
(dp271
g149
Nsg152
I01
sg139
g225
sg145
(lp272
g214
ag3
(g141
g5
NtRp273
(dp274
g139
g144
sg145
(lp275
sg147
(lp276
sg149
I3
sg150
g263
sg152
I01
sbag3
(g159
g5
NtRp277
(dp278
g149
Nsg152
I00
sg139
g145
sg145
(lp279
g214
ag206
asg147
(lp280
sbasg147
(lp281
sbag217
asg147
(lp282
sbasg3
(g159
g5
NtRp283
(dp284
g149
Nsg152
I01
sg139
g162
sg145
(lp285
g3
(g159
g5
NtRp286
(dp287
g149
Nsg152
I00
sg139
g166
sg145
(lp288
g3
(g141
g5
NtRp289
(dp290
g139
g144
sg145
(lp291
sg147
(lp292
sg149
I12
sg150
g29
sg152
I01
sbag3
(g159
g5
NtRp293
(dp294
g149
Nsg152
I00
sg139
g174
sg145
(lp295
g3
(g141
g5
NtRp296
(dp297
g139
g144
sg145
(lp298
sg147
(lp299
sg149
Nsg150
I1
sg152
I01
sbag3
(g141
g5
NtRp300
(dp301
g139
g144
sg145
(lp302
sg147
(lp303
sg149
Nsg150
I100
sg152
I01
sbag3
(g141
g5
NtRp304
(dp305
g139
g144
sg145
(lp306
sg147
(lp307
sg149
Nsg150
I1
sg152
I01
sbasg147
(lp308
(g189
g190
tp309
asbasg147
(lp310
sbasg147
(lp311
sb(lp312
g3
(g159
g5
NtRp313
(dp314
g149
Nsg152
I01
sg139
g208
sg145
(lp315
g3
(g159
g5
NtRp316
(dp317
g149
Nsg152
I01
sg139
g212
sg145
(lp318
g3
(g159
g5
NtRp319
(dp320
g149
Nsg152
I01
sg139
g212
sg145
(lp321
g217
asg147
(lp322
sbasg147
(lp323
sbag3
(g159
g5
NtRp324
(dp325
g149
Nsg152
I01
sg139
g225
sg145
(lp326
g316
ag3
(g141
g5
NtRp327
(dp328
g139
g144
sg145
(lp329
sg147
(lp330
sg149
I5
sg150
g162
sg152
I01
sbag3
(g159
g5
NtRp331
(dp332
g149
Nsg152
I00
sg139
g145
sg145
(lp333
g316
ag3
(g159
g5
NtRp334
(dp335
g149
Nsg152
I01
sg139
g208
sg145
(lp336
g3
(g159
g5
NtRp337
(dp338
g149
Nsg152
I01
sg139
g212
sg145
(lp339
g316
asg147
(lp340
sbag3
(g159
g5
NtRp341
(dp342
g149
Nsg152
I00
sg139
g174
sg145
(lp343
g296
ag300
ag304
asg147
(lp344
(lp345
g246
ag3
(g159
g5
NtRp346
(dp347
g149
Nsg152
I01
sg139
g249
sg145
(lp348
g337
asg147
(lp349
sbaa(g189
g252
tp350
asbag316
asg147
(lp351
sbasg147
(lp352
sbasg147
(lp353
sbag319
asg147
(lp354
sbasg3
(g159
g5
NtRp355
(dp356
g149
Nsg152
I01
sg139
g263
sg145
(lp357
g283
asg147
(lp358
sb(lp359
g3
(g159
g5
NtRp360
(dp361
g149
Nsg152
I01
sg139
g208
sg145
(lp362
g319
ag3
(g159
g5
NtRp363
(dp364
g149
Nsg152
I01
sg139
g225
sg145
(lp365
g319
ag3
(g141
g5
NtRp366
(dp367
g139
g144
sg145
(lp368
sg147
(lp369
sg149
I3
sg150
g263
sg152
I01
sbag3
(g159
g5
NtRp370
(dp371
g149
Nsg152
I00
sg139
g145
sg145
(lp372
g319
ag313
asg147
(lp373
sbasg147
(lp374
sbag217
asg147
(lp375
sbasg176
(lp376
g3
(g159
g5
NtRp377
(dp378
g149
Nsg152
I01
sg139
g208
sg145
(lp379
g3
(g159
g5
NtRp380
(dp381
g149
Nsg152
I01
sg139
g212
sg145
(lp382
g142
asg147
(lp383
sbag3
(g159
g5
NtRp384
(dp385
g149
Nsg152
I01
sg139
S'asarray'
p386
sg145
(lp387
g3
(g159
g5
NtRp388
(dp389
g149
Nsg152
I01
sg139
S'repeat'
p390
sg145
(lp391
g3
(g159
g5
NtRp392
(dp393
g149
Nsg152
I01
sg139
g249
sg145
(lp394
g142
asg147
(lp395
sbag176
asg147
(lp396
sbasg147
(lp397
sbag237
asg147
(lp398
sbasg3
(g159
g5
NtRp399
(dp400
g149
Nsg152
I00
sg139
S'uniform'
p401
sg145
(lp402
g3
(g141
g5
NtRp403
(dp404
g139
g144
sg145
(lp405
sg147
(lp406
sg149
Nsg150
F0.10000000000000001
sg152
I01
sbag3
(g141
g5
NtRp407
(dp408
g139
g144
sg145
(lp409
sg147
(lp410
sg149
Nsg150
I1
sg152
I01
sbasg147
(lp411
(g189
g190
tp412
asb(lp413
g3
(g159
g5
NtRp414
(dp415
g149
Nsg152
I01
sg139
g208
sg145
(lp416
g3
(g159
g5
NtRp417
(dp418
g149
Nsg152
I01
sg139
g212
sg145
(lp419
g3
(g159
g5
NtRp420
(dp421
g149
Nsg152
I01
sg139
g212
sg145
(lp422
g217
asg147
(lp423
sbasg147
(lp424
sbag3
(g159
g5
NtRp425
(dp426
g149
Nsg152
I00
sg139
g401
sg145
(lp427
g403
ag407
asg147
(lp428
(lp429
g246
ag3
(g159
g5
NtRp430
(dp431
g149
Nsg152
I01
sg139
g249
sg145
(lp432
g417
asg147
(lp433
sbaa(g189
g252
tp434
asbag420
asg147
(lp435
sbasg403
(lp436
g3
(g159
g5
NtRp437
(dp438
g149
Nsg152
I01
sg139
g208
sg145
(lp439
g3
(g159
g5
NtRp440
(dp441
g149
Nsg152
I01
sg139
g212
sg145
(lp442
g142
asg147
(lp443
sbag3
(g159
g5
NtRp444
(dp445
g149
Nsg152
I01
sg139
g386
sg145
(lp446
g3
(g159
g5
NtRp447
(dp448
g149
Nsg152
I01
sg139
g390
sg145
(lp449
g3
(g159
g5
NtRp450
(dp451
g149
Nsg152
I01
sg139
g249
sg145
(lp452
g142
asg147
(lp453
sbag403
asg147
(lp454
sbasg147
(lp455
sbag417
asg147
(lp456
sbasg407
(lp457
g3
(g159
g5
NtRp458
(dp459
g149
Nsg152
I01
sg139
g208
sg145
(lp460
g3
(g159
g5
NtRp461
(dp462
g149
Nsg152
I01
sg139
g212
sg145
(lp463
g142
asg147
(lp464
sbag3
(g159
g5
NtRp465
(dp466
g149
Nsg152
I01
sg139
g386
sg145
(lp467
g3
(g159
g5
NtRp468
(dp469
g149
Nsg152
I01
sg139
g390
sg145
(lp470
g3
(g159
g5
NtRp471
(dp472
g149
Nsg152
I01
sg139
g249
sg145
(lp473
g142
asg147
(lp474
sbag407
asg147
(lp475
sbasg147
(lp476
sbag417
asg147
(lp477
sbasg3
(g159
g5
NtRp478
(dp479
g149
Nsg152
I01
sg139
g162
sg145
(lp480
g3
(g159
g5
NtRp481
(dp482
g149
Nsg152
I00
sg139
g166
sg145
(lp483
g3
(g141
g5
NtRp484
(dp485
g139
g144
sg145
(lp486
sg147
(lp487
sg149
I12
sg150
g23
sg152
I01
sbag399
asg147
(lp488
sbasg147
(lp489
sb(lp490
g3
(g159
g5
NtRp491
(dp492
g149
Nsg152
I01
sg139
g208
sg145
(lp493
g420
ag3
(g159
g5
NtRp494
(dp495
g149
Nsg152
I01
sg139
g225
sg145
(lp496
g420
ag3
(g141
g5
NtRp497
(dp498
g139
g144
sg145
(lp499
sg147
(lp500
sg149
I5
sg150
g162
sg152
I01
sbag3
(g159
g5
NtRp501
(dp502
g149
Nsg152
I00
sg139
g145
sg145
(lp503
g420
ag414
asg147
(lp504
sbasg147
(lp505
sbag217
asg147
(lp506
sbasg3
(g159
g5
NtRp507
(dp508
g149
Nsg152
I00
sg139
g174
sg145
(lp509
g3
(g141
g5
NtRp510
(dp511
g139
g144
sg145
(lp512
sg147
(lp513
sg149
Nsg150
I1
sg152
I01
sbag3
(g141
g5
NtRp514
(dp515
g139
g144
sg145
(lp516
sg147
(lp517
sg149
Nsg150
I10
sg152
I01
sbag3
(g141
g5
NtRp518
(dp519
g139
g144
sg145
(lp520
sg147
(lp521
sg149
Nsg150
I1
sg152
I01
sbasg147
(lp522
(g189
g190
tp523
asb(lp524
g3
(g159
g5
NtRp525
(dp526
g149
Nsg152
I01
sg139
g208
sg145
(lp527
g3
(g159
g5
NtRp528
(dp529
g149
Nsg152
I01
sg139
g212
sg145
(lp530
g3
(g159
g5
NtRp531
(dp532
g149
Nsg152
I01
sg139
g212
sg145
(lp533
g3
(g159
g5
NtRp534
(dp535
g149
Nsg152
I01
sg139
g212
sg145
(lp536
g217
asg147
(lp537
sbasg147
(lp538
sbasg147
(lp539
sbag3
(g159
g5
NtRp540
(dp541
g149
Nsg152
I00
sg139
g174
sg145
(lp542
g510
ag514
ag518
asg147
(lp543
(lp544
g246
ag3
(g159
g5
NtRp545
(dp546
g149
Nsg152
I01
sg139
g249
sg145
(lp547
g528
asg147
(lp548
sbaa(g189
g252
tp549
asbag531
asg147
(lp550
sbasg510
(lp551
g3
(g159
g5
NtRp552
(dp553
g149
Nsg152
I01
sg139
g208
sg145
(lp554
g3
(g159
g5
NtRp555
(dp556
g149
Nsg152
I01
sg139
g212
sg145
(lp557
g142
asg147
(lp558
sbag3
(g159
g5
NtRp559
(dp560
g149
Nsg152
I01
sg139
g386
sg145
(lp561
g3
(g159
g5
NtRp562
(dp563
g149
Nsg152
I01
sg139
g390
sg145
(lp564
g3
(g159
g5
NtRp565
(dp566
g149
Nsg152
I01
sg139
g249
sg145
(lp567
g142
asg147
(lp568
sbag510
asg147
(lp569
sbasg147
(lp570
sbag528
asg147
(lp571
sbasg514
(lp572
g3
(g159
g5
NtRp573
(dp574
g149
Nsg152
I01
sg139
g208
sg145
(lp575
g3
(g159
g5
NtRp576
(dp577
g149
Nsg152
I01
sg139
g212
sg145
(lp578
g142
asg147
(lp579
sbag3
(g159
g5
NtRp580
(dp581
g149
Nsg152
I01
sg139
g386
sg145
(lp582
g3
(g159
g5
NtRp583
(dp584
g149
Nsg152
I01
sg139
g390
sg145
(lp585
g3
(g159
g5
NtRp586
(dp587
g149
Nsg152
I01
sg139
g249
sg145
(lp588
g142
asg147
(lp589
sbag514
asg147
(lp590
sbasg147
(lp591
sbag528
asg147
(lp592
sbasg518
(lp593
g3
(g159
g5
NtRp594
(dp595
g149
Nsg152
I01
sg139
g208
sg145
(lp596
g3
(g159
g5
NtRp597
(dp598
g149
Nsg152
I01
sg139
g212
sg145
(lp599
g142
asg147
(lp600
sbag3
(g159
g5
NtRp601
(dp602
g149
Nsg152
I01
sg139
g386
sg145
(lp603
g3
(g159
g5
NtRp604
(dp605
g149
Nsg152
I01
sg139
g390
sg145
(lp606
g3
(g159
g5
NtRp607
(dp608
g149
Nsg152
I01
sg139
g249
sg145
(lp609
g142
asg147
(lp610
sbag518
asg147
(lp611
sbasg147
(lp612
sbag528
asg147
(lp613
sbasg184
(lp614
g3
(g159
g5
NtRp615
(dp616
g149
Nsg152
I01
sg139
g208
sg145
(lp617
g3
(g159
g5
NtRp618
(dp619
g149
Nsg152
I01
sg139
g212
sg145
(lp620
g142
asg147
(lp621
sbag3
(g159
g5
NtRp622
(dp623
g149
Nsg152
I01
sg139
g386
sg145
(lp624
g3
(g159
g5
NtRp625
(dp626
g149
Nsg152
I01
sg139
g390
sg145
(lp627
g3
(g159
g5
NtRp628
(dp629
g149
Nsg152
I01
sg139
g249
sg145
(lp630
g142
asg147
(lp631
sbag184
asg147
(lp632
sbasg147
(lp633
sbag237
asg147
(lp634
sbasg3
(g159
g5
NtRp635
(dp636
g149
Nsg152
I01
sg139
g162
sg145
(lp637
g3
(g159
g5
NtRp638
(dp639
g149
Nsg152
I00
sg139
g166
sg145
(lp640
g3
(g141
g5
NtRp641
(dp642
g139
g144
sg145
(lp643
sg147
(lp644
sg149
I17
sg150
g25
sg152
I01
sbag507
asg147
(lp645
sbasg147
(lp646
sb(lp647
g3
(g159
g5
NtRp648
(dp649
g149
Nsg152
I01
sg139
g208
sg145
(lp650
g531
ag3
(g159
g5
NtRp651
(dp652
g149
Nsg152
I01
sg139
g225
sg145
(lp653
g531
ag3
(g141
g5
NtRp654
(dp655
g139
g144
sg145
(lp656
sg147
(lp657
sg149
I5
sg150
g162
sg152
I01
sbag3
(g159
g5
NtRp658
(dp659
g149
Nsg152
I00
sg139
g145
sg145
(lp660
g531
ag525
asg147
(lp661
sbasg147
(lp662
sbag534
asg147
(lp663
sbasg3
(g159
g5
NtRp664
(dp665
g149
Nsg152
I01
sg139
g263
sg145
(lp666
g635
asg147
(lp667
sb(lp668
g3
(g159
g5
NtRp669
(dp670
g149
Nsg152
I01
sg139
g208
sg145
(lp671
g534
ag3
(g159
g5
NtRp672
(dp673
g149
Nsg152
I01
sg139
g225
sg145
(lp674
g534
ag3
(g141
g5
NtRp675
(dp676
g139
g144
sg145
(lp677
sg147
(lp678
sg149
I3
sg150
g263
sg152
I01
sbag3
(g159
g5
NtRp679
(dp680
g149
Nsg152
I00
sg139
g145
sg145
(lp681
g534
ag648
asg147
(lp682
sbasg147
(lp683
sbag217
asg147
(lp684
sbasg3
(g159
g5
NtRp685
(dp686
g149
Nsg152
I00
sg139
g174
sg145
(lp687
g3
(g141
g5
NtRp688
(dp689
g139
g144
sg145
(lp690
sg147
(lp691
sg149
Nsg150
I1
sg152
I01
sbag3
(g141
g5
NtRp692
(dp693
g139
g144
sg145
(lp694
sg147
(lp695
sg149
Nsg150
I10
sg152
I01
sbag3
(g141
g5
NtRp696
(dp697
g139
g144
sg145
(lp698
sg147
(lp699
sg149
Nsg150
I1
sg152
I01
sbasg147
(lp700
(g189
g190
tp701
asb(lp702
g3
(g159
g5
NtRp703
(dp704
g149
Nsg152
I01
sg139
g208
sg145
(lp705
g3
(g159
g5
NtRp706
(dp707
g149
Nsg152
I01
sg139
g212
sg145
(lp708
g3
(g159
g5
NtRp709
(dp710
g149
Nsg152
I01
sg139
g212
sg145
(lp711
g3
(g159
g5
NtRp712
(dp713
g149
Nsg152
I01
sg139
g212
sg145
(lp714
g217
asg147
(lp715
sbasg147
(lp716
sbasg147
(lp717
sbag3
(g159
g5
NtRp718
(dp719
g149
Nsg152
I00
sg139
g174
sg145
(lp720
g688
ag692
ag696
asg147
(lp721
(lp722
g246
ag3
(g159
g5
NtRp723
(dp724
g149
Nsg152
I01
sg139
g249
sg145
(lp725
g706
asg147
(lp726
sbaa(g189
g252
tp727
asbag709
asg147
(lp728
sbasg688
(lp729
g3
(g159
g5
NtRp730
(dp731
g149
Nsg152
I01
sg139
g208
sg145
(lp732
g3
(g159
g5
NtRp733
(dp734
g149
Nsg152
I01
sg139
g212
sg145
(lp735
g142
asg147
(lp736
sbag3
(g159
g5
NtRp737
(dp738
g149
Nsg152
I01
sg139
g386
sg145
(lp739
g3
(g159
g5
NtRp740
(dp741
g149
Nsg152
I01
sg139
g390
sg145
(lp742
g3
(g159
g5
NtRp743
(dp744
g149
Nsg152
I01
sg139
g249
sg145
(lp745
g142
asg147
(lp746
sbag688
asg147
(lp747
sbasg147
(lp748
sbag706
asg147
(lp749
sbasg3
(g159
g5
NtRp750
(dp751
g149
I6
sg152
I00
sg139
S'dict'
p752
sg145
(lp753
sg147
(lp754
(lp755
g23
ag478
aa(lp756
g31
ag3
(g159
g5
NtRp757
(dp758
g149
Nsg152
I01
sg139
g263
sg145
(lp759
g3
(g159
g5
NtRp760
(dp761
g149
Nsg152
I01
sg139
g162
sg145
(lp762
g3
(g159
g5
NtRp763
(dp764
g149
Nsg152
I00
sg139
g166
sg145
(lp765
g3
(g141
g5
NtRp766
(dp767
g139
g144
sg145
(lp768
sg147
(lp769
sg149
I16
sg150
g31
sg152
I01
sbag685
asg147
(lp770
sbasg147
(lp771
sbasg147
(lp772
sbaa(lp773
g25
ag664
aa(lp774
g29
ag355
aa(lp775
S'n_jobs'
p776
ag3
(g141
g5
NtRp777
(dp778
g139
g144
sg145
(lp779
sg147
(lp780
sg149
Nsg150
I4
sg152
I01
sbaa(lp781
g27
ag261
aasb(lp782
g3
(g159
g5
NtRp783
(dp784
g149
Nsg152
I01
sg139
g208
sg145
(lp785
g217
ag3
(g159
g5
NtRp786
(dp787
g149
Nsg152
I01
sg139
g225
sg145
(lp788
g217
ag3
(g141
g5
NtRp789
(dp790
g139
g144
sg145
(lp791
sg147
(lp792
sg149
I4
sg150
g752
sg152
I01
sbasg147
(lp793
(lp794
g23
ag3
(g159
g5
NtRp795
(dp796
g149
Nsg152
I00
sg139
g145
sg145
(lp797
g217
ag491
asg147
(lp798
sbaa(lp799
g31
ag3
(g159
g5
NtRp800
(dp801
g149
Nsg152
I00
sg139
g145
sg145
(lp802
g217
ag3
(g159
g5
NtRp803
(dp804
g149
Nsg152
I01
sg139
g208
sg145
(lp805
g712
ag3
(g159
g5
NtRp806
(dp807
g149
Nsg152
I01
sg139
g225
sg145
(lp808
g712
ag3
(g141
g5
NtRp809
(dp810
g139
g144
sg145
(lp811
sg147
(lp812
sg149
I3
sg150
g263
sg152
I01
sbag3
(g159
g5
NtRp813
(dp814
g149
Nsg152
I00
sg139
g145
sg145
(lp815
g712
ag3
(g159
g5
NtRp816
(dp817
g149
Nsg152
I01
sg139
g208
sg145
(lp818
g709
ag3
(g159
g5
NtRp819
(dp820
g149
Nsg152
I01
sg139
g225
sg145
(lp821
g709
ag3
(g141
g5
NtRp822
(dp823
g139
g144
sg145
(lp824
sg147
(lp825
sg149
I5
sg150
g162
sg152
I01
sbag3
(g159
g5
NtRp826
(dp827
g149
Nsg152
I00
sg139
g145
sg145
(lp828
g709
ag703
asg147
(lp829
sbasg147
(lp830
sbag712
asg147
(lp831
sbasg147
(lp832
sbasg147
(lp833
sbag217
asg147
(lp834
sbasg147
(lp835
sbaa(lp836
g25
ag3
(g159
g5
NtRp837
(dp838
g149
Nsg152
I00
sg139
g145
sg145
(lp839
g217
ag669
asg147
(lp840
sbaa(lp841
g29
ag3
(g159
g5
NtRp842
(dp843
g149
Nsg152
I00
sg139
g145
sg145
(lp844
g217
ag360
asg147
(lp845
sbaa(lp846
g776
ag3
(g159
g5
NtRp847
(dp848
g149
Nsg152
I00
sg139
g145
sg145
(lp849
g217
ag3
(g159
g5
NtRp850
(dp851
g149
Nsg152
I01
sg139
g208
sg145
(lp852
g3
(g159
g5
NtRp853
(dp854
g149
Nsg152
I01
sg139
g212
sg145
(lp855
g142
asg147
(lp856
sbag3
(g159
g5
NtRp857
(dp858
g149
Nsg152
I01
sg139
g386
sg145
(lp859
g3
(g159
g5
NtRp860
(dp861
g149
Nsg152
I01
sg139
g390
sg145
(lp862
g3
(g159
g5
NtRp863
(dp864
g149
Nsg152
I01
sg139
g249
sg145
(lp865
g142
asg147
(lp866
sbag777
asg147
(lp867
sbasg147
(lp868
sbag217
asg147
(lp869
sbasg147
(lp870
sbaa(lp871
g27
ag3
(g159
g5
NtRp872
(dp873
g149
Nsg152
I00
sg139
g145
sg145
(lp874
g217
ag267
asg147
(lp875
sbaasbag142
asg147
(lp876
sbasg692
(lp877
g3
(g159
g5
NtRp878
(dp879
g149
Nsg152
I01
sg139
g208
sg145
(lp880
g3
(g159
g5
NtRp881
(dp882
g149
Nsg152
I01
sg139
g212
sg145
(lp883
g142
asg147
(lp884
sbag3
(g159
g5
NtRp885
(dp886
g149
Nsg152
I01
sg139
g386
sg145
(lp887
g3
(g159
g5
NtRp888
(dp889
g149
Nsg152
I01
sg139
g390
sg145
(lp890
g3
(g159
g5
NtRp891
(dp892
g149
Nsg152
I01
sg139
g249
sg145
(lp893
g142
asg147
(lp894
sbag692
asg147
(lp895
sbasg147
(lp896
sbag706
asg147
(lp897
sbasg696
(lp898
g3
(g159
g5
NtRp899
(dp900
g149
Nsg152
I01
sg139
g208
sg145
(lp901
g3
(g159
g5
NtRp902
(dp903
g149
Nsg152
I01
sg139
g212
sg145
(lp904
g142
asg147
(lp905
sbag3
(g159
g5
NtRp906
(dp907
g149
Nsg152
I01
sg139
g386
sg145
(lp908
g3
(g159
g5
NtRp909
(dp910
g149
Nsg152
I01
sg139
g390
sg145
(lp911
g3
(g159
g5
NtRp912
(dp913
g149
Nsg152
I01
sg139
g249
sg145
(lp914
g142
asg147
(lp915
sbag696
asg147
(lp916
sbasg147
(lp917
sbag706
asg147
(lp918
sbasg760
(lp919
g816
asg757
(lp920
g803
asg777
(lp921
g850
asg293
(lp922
g334
asg296
(lp923
g3
(g159
g5
NtRp924
(dp925
g149
Nsg152
I01
sg139
g208
sg145
(lp926
g3
(g159
g5
NtRp927
(dp928
g149
Nsg152
I01
sg139
g212
sg145
(lp929
g142
asg147
(lp930
sbag3
(g159
g5
NtRp931
(dp932
g149
Nsg152
I01
sg139
g386
sg145
(lp933
g3
(g159
g5
NtRp934
(dp935
g149
Nsg152
I01
sg139
g390
sg145
(lp936
g3
(g159
g5
NtRp937
(dp938
g149
Nsg152
I01
sg139
g249
sg145
(lp939
g142
asg147
(lp940
sbag296
asg147
(lp941
sbasg147
(lp942
sbag337
asg147
(lp943
sbasg180
(lp944
g3
(g159
g5
NtRp945
(dp946
g149
Nsg152
I01
sg139
g208
sg145
(lp947
g3
(g159
g5
NtRp948
(dp949
g149
Nsg152
I01
sg139
g212
sg145
(lp950
g142
asg147
(lp951
sbag3
(g159
g5
NtRp952
(dp953
g149
Nsg152
I01
sg139
g386
sg145
(lp954
g3
(g159
g5
NtRp955
(dp956
g149
Nsg152
I01
sg139
g390
sg145
(lp957
g3
(g159
g5
NtRp958
(dp959
g149
Nsg152
I01
sg139
g249
sg145
(lp960
g142
asg147
(lp961
sbag180
asg147
(lp962
sbasg147
(lp963
sbag237
asg147
(lp964
sbasg300
(lp965
g3
(g159
g5
NtRp966
(dp967
g149
Nsg152
I01
sg139
g208
sg145
(lp968
g3
(g159
g5
NtRp969
(dp970
g149
Nsg152
I01
sg139
g212
sg145
(lp971
g142
asg147
(lp972
sbag3
(g159
g5
NtRp973
(dp974
g149
Nsg152
I01
sg139
g386
sg145
(lp975
g3
(g159
g5
NtRp976
(dp977
g149
Nsg152
I01
sg139
g390
sg145
(lp978
g3
(g159
g5
NtRp979
(dp980
g149
Nsg152
I01
sg139
g249
sg145
(lp981
g142
asg147
(lp982
sbag300
asg147
(lp983
sbasg147
(lp984
sbag337
asg147
(lp985
sbasg172
(lp986
g234
asg304
(lp987
g3
(g159
g5
NtRp988
(dp989
g149
Nsg152
I01
sg139
g208
sg145
(lp990
g3
(g159
g5
NtRp991
(dp992
g149
Nsg152
I01
sg139
g212
sg145
(lp993
g142
asg147
(lp994
sbag3
(g159
g5
NtRp995
(dp996
g149
Nsg152
I01
sg139
g386
sg145
(lp997
g3
(g159
g5
NtRp998
(dp999
g149
Nsg152
I01
sg139
g390
sg145
(lp1000
g3
(g159
g5
NtRp1001
(dp1002
g149
Nsg152
I01
sg139
g249
sg145
(lp1003
g142
asg147
(lp1004
sbag304
asg147
(lp1005
sbasg147
(lp1006
sbag337
asg147
(lp1007
sbassS'expr'
p1008
g750
sS'idxs_memo'
p1009
(dp1010
g160
g210
sg261
g214
sg283
g316
sg355
g319
sg176
g380
sg399
g417
sg403
g440
sg407
g461
sg478
g420
sg507
g528
sg510
g555
sg514
g576
sg518
g597
sg184
g618
sg635
g531
sg664
g534
sg685
g706
sg688
g733
sg750
g217
sg692
g881
sg696
g902
sg760
g709
sg757
g712
sg777
g853
sg293
g337
sg296
g927
sg180
g948
sg300
g969
sg172
g237
sg304
g991
ssS'dfs_nodes'
p1011
(lp1012
g484
ag403
ag407
ag399
ag481
ag478
ag766
ag688
ag692
ag696
ag685
ag763
ag760
ag757
ag641
ag510
ag514
ag518
ag507
ag638
ag635
ag664
ag289
ag296
ag300
ag304
ag293
ag286
ag283
ag355
ag777
ag168
ag176
ag180
ag184
ag172
ag164
ag160
ag261
ag750
asS'params'
p1013
(dp1014
g23
g399
sg25
g507
sg27
g172
sg29
g293
sg31
g685
ssS'v_expr'
p1015
g783
sS'expr_idxs'
p1016
g142
sbsg1008
g750
sS'pass_expr_memo_ctrl'
p1017
I00
sg189
g195
sg44
Nsg1013
(dp1018
g23
g399
sg25
g507
sg27
g172
sg29
g293
sg31
g685
ssS's_idxs_vals'
p1019
g3
(g159
g5
NtRp1020
(dp1021
g149
Nsg152
I01
sg139
g145
sg145
(lp1022
g3
(g159
g5
NtRp1023
(dp1024
g149
I5
sg152
I00
sg139
g752
sg145
(lp1025
sg147
(lp1026
(lp1027
g23
ag417
aa(lp1028
g31
ag706
aa(lp1029
g25
ag528
aa(lp1030
g29
ag337
aa(lp1031
g27
ag237
aasbag3
(g159
g5
NtRp1032
(dp1033
g149
I5
sg152
I00
sg139
g752
sg145
(lp1034
sg147
(lp1035
(lp1036
g23
ag425
aa(lp1037
g31
ag718
aa(lp1038
g25
ag540
aa(lp1039
g29
ag341
aa(lp1040
g27
ag241
aasbasg147
(lp1041
sbsS'loss_target'
p1042
NsS'installed_rng'
p1043
I01
sS'fn'
p1044
cHPOlib.cv
main
p1045
sbs.