(dp1
S'cv_endtime'
p2
(lp3
F1399980397.7649491
aF1399980914.4201419
aF1399982745.682796
aF1399987600.249145
aF1399994928.332845
aF1399995399.8975229
aF1399997848.5064609
aF1400003678.161094
asS'folds'
p4
I1
sS'cv_starttime'
p5
(lp6
F1399978878.5702579
aF1399980397.7901659
aF1399980914.4453609
aF1399982745.7080159
aF1399987600.2758851
aF1399994928.358351
aF1399995399.9469399
aF1399997849.700943
aF1400003678.205755
asS'endtime'
p7
(lp8
sS'optimizer'
p9
S'/home/feurerm/HPOlib/Software/HPOlib/optimizers/tpe/random_hyperopt_august2013_mod'
p10
sS'optimizer_time'
p11
(lp12
sS'instance_order'
p13
(lp14
(I0
I0
tp15
a(I1
I0
tp16
a(I2
I0
tp17
a(I3
I0
tp18
a(I4
I0
tp19
a(I5
I0
tp20
a(I6
I0
tp21
a(I7
I0
tp22
a(I8
I0
tp23
asS'max_wallclock_time'
p24
S''
sS'title'
p25
NsS'trials'
p26
(lp27
(dp28
S'status'
p29
I3
sS'std'
p30
cnumpy.core.multiarray
scalar
p31
(cnumpy
dtype
p32
(S'f8'
I0
I1
tRp33
(I3
S'<'
NNNI-1
I-1
I0
tbS'\x00\x00\x00\x00\x00\x00\x00\x00'
tRp34
sS'instance_durations'
p35
cnumpy.core.multiarray
_reconstruct
p36
(cnumpy
ndarray
p37
(I0
tS'b'
tRp38
(I1
(I1
tg32
(S'f8'
I0
I1
tRp39
(I3
S'<'
NNNI-1
I-1
I0
tbI00
S'R\xb8\x1e\x85\xeb\xba\x97@'
tbsS'instance_results'
p40
g36
(g37
(I0
tS'b'
tRp41
(I1
(I1
tg39
I00
S'\xe8N\xb0\xff:7\xd3?'
tbsS'test_error'
p42
Fnan
sS'params'
p43
ccollections
OrderedDict
p44
((lp45
(lp46
S'-max_features'
p47
aS'0.885227081664'
p48
aa(lp49
S'-min_samples_leaf'
p50
aS'5'
aa(lp51
S'-min_samples_split'
p52
aS'10'
p53
aa(lp54
S'-n_estimators'
p55
aS'12'
p56
aa(lp57
S'-n_jobs'
p58
aS'4'
aa(lp59
S'-seed'
p60
aS'66'
p61
aatRp62
sS'result'
p63
g31
(g33
S'\xe8N\xb0\xff:7\xd3?'
tRp64
sS'duration'
p65
g31
(g33
S'R\xb8\x1e\x85\xeb\xba\x97@'
tRp66
sS'instance_status'
p67
g36
(g37
(I0
tS'b'
tRp68
(I1
(I1
tg32
(S'i8'
I0
I1
tRp69
(I3
S'<'
NNNI-1
I-1
I0
tbI00
S'\x03\x00\x00\x00\x00\x00\x00\x00'
tbsa(dp70
S'status'
p71
I3
sS'std'
p72
g31
(g33
S'\x00\x00\x00\x00\x00\x00\x00\x00'
tRp73
sS'instance_durations'
p74
g36
(g37
(I0
tS'b'
tRp75
(I1
(I1
tg32
(S'f8'
I0
I1
tRp76
(I3
S'<'
NNNI-1
I-1
I0
tbI00
S'9\xb4\xc8v\xbe!\x80@'
tbsS'instance_results'
p77
g36
(g37
(I0
tS'b'
tRp78
(I1
(I1
tg76
I00
S'\xa93\xf7\x90\xf0\xbd\xd1?'
tbsS'test_error'
p79
Fnan
sS'params'
p80
g44
((lp81
(lp82
S'-max_features'
p83
aS'0.120802196793'
p84
aa(lp85
S'-min_samples_leaf'
p86
aS'5'
aa(lp87
S'-min_samples_split'
p88
aS'3'
aa(lp89
S'-n_estimators'
p90
aS'27'
p91
aa(lp92
S'-n_jobs'
p93
aS'4'
aa(lp94
S'-seed'
p95
aS'31'
p96
aatRp97
sS'result'
p98
g31
(g33
S'\xa93\xf7\x90\xf0\xbd\xd1?'
tRp99
sS'duration'
p100
g31
(g33
S'9\xb4\xc8v\xbe!\x80@'
tRp101
sS'instance_status'
p102
g36
(g37
(I0
tS'b'
tRp103
(I1
(I1
tg32
(S'i8'
I0
I1
tRp104
(I3
S'<'
NNNI-1
I-1
I0
tbI00
S'\x03\x00\x00\x00\x00\x00\x00\x00'
tbsa(dp105
S'status'
p106
I3
sS'std'
p107
g31
(g33
S'\x00\x00\x00\x00\x00\x00\x00\x00'
tRp108
sS'instance_durations'
p109
g36
(g37
(I0
tS'b'
tRp110
(I1
(I1
tg32
(S'f8'
I0
I1
tRp111
(I3
S'<'
NNNI-1
I-1
I0
tbI00
S'\n\xd7\xa3p=\x9b\x9c@'
tbsS'instance_results'
p112
g36
(g37
(I0
tS'b'
tRp113
(I1
(I1
tg111
I00
S'\xa5\xf4L/1\x96\xd1?'
tbsS'test_error'
p114
Fnan
sS'params'
p115
g44
((lp116
(lp117
S'-max_features'
p118
aS'0.264761242244'
p119
aa(lp120
S'-min_samples_leaf'
p121
aS'6'
aa(lp122
S'-min_samples_split'
p123
aS'5'
aa(lp124
S'-n_estimators'
p125
aS'47'
p126
aa(lp127
S'-n_jobs'
p128
aS'4'
aa(lp129
S'-seed'
p130
aS'14'
p131
aatRp132
sS'result'
p133
g31
(g33
S'\xa5\xf4L/1\x96\xd1?'
tRp134
sS'duration'
p135
g31
(g33
S'\n\xd7\xa3p=\x9b\x9c@'
tRp136
sS'instance_status'
p137
g36
(g37
(I0
tS'b'
tRp138
(I1
(I1
tg32
(S'i8'
I0
I1
tRp139
(I3
S'<'
NNNI-1
I-1
I0
tbI00
S'\x03\x00\x00\x00\x00\x00\x00\x00'
tbsa(dp140
S'status'
p141
I3
sS'std'
p142
g31
(g33
S'\x00\x00\x00\x00\x00\x00\x00\x00'
tRp143
sS'instance_durations'
p144
g36
(g37
(I0
tS'b'
tRp145
(I1
(I1
tg32
(S'f8'
I0
I1
tRp146
(I3
S'<'
NNNI-1
I-1
I0
tbI00
S'33333\xf6\xb2@'
tbsS'instance_results'
p147
g36
(g37
(I0
tS'b'
tRp148
(I1
(I1
tg146
I00
S'\xbba\xdb\xa2\xcc\x06\xd3?'
tbsS'instance_status'
p149
g36
(g37
(I0
tS'b'
tRp150
(I1
(I1
tg32
(S'i8'
I0
I1
tRp151
(I3
S'<'
NNNI-1
I-1
I0
tbI00
S'\x03\x00\x00\x00\x00\x00\x00\x00'
tbsS'params'
p152
g44
((lp153
(lp154
S'-max_features'
p155
aS'0.90548029095'
p156
aa(lp157
S'-min_samples_leaf'
p158
aS'6'
aa(lp159
S'-min_samples_split'
p160
aS'1'
aa(lp161
S'-n_estimators'
p162
aS'44'
p163
aa(lp164
S'-n_jobs'
p165
aS'4'
aa(lp166
S'-seed'
p167
aS'60'
p168
aatRp169
sS'result'
p170
g31
(g33
S'\xbba\xdb\xa2\xcc\x06\xd3?'
tRp171
sS'duration'
p172
g31
(g33
S'33333\xf6\xb2@'
tRp173
sS'test_error'
p174
Fnan
sa(dp175
S'status'
p176
I3
sS'std'
p177
g31
(g33
S'\x00\x00\x00\x00\x00\x00\x00\x00'
tRp178
sS'instance_durations'
p179
g36
(g37
(I0
tS'b'
tRp180
(I1
(I1
tg32
(S'f8'
I0
I1
tRp181
(I3
S'<'
NNNI-1
I-1
I0
tbI00
S'R\xb8\x1e\x85\xab\x9f\xbc@'
tbsS'instance_results'
p182
g36
(g37
(I0
tS'b'
tRp183
(I1
(I1
tg181
I00
S'#\x161\xec0&\xd2?'
tbsS'instance_status'
p184
g36
(g37
(I0
tS'b'
tRp185
(I1
(I1
tg32
(S'i8'
I0
I1
tRp186
(I3
S'<'
NNNI-1
I-1
I0
tbI00
S'\x03\x00\x00\x00\x00\x00\x00\x00'
tbsS'params'
p187
g44
((lp188
(lp189
S'-max_features'
p190
aS'0.603985965094'
p191
aa(lp192
S'-min_samples_leaf'
p193
aS'9'
aa(lp194
S'-min_samples_split'
p195
aS'8'
aa(lp196
S'-n_estimators'
p197
aS'86'
p198
aa(lp199
S'-n_jobs'
p200
aS'4'
aa(lp201
S'-seed'
p202
aS'5'
aatRp203
sS'result'
p204
g31
(g33
S'#\x161\xec0&\xd2?'
tRp205
sS'duration'
p206
g31
(g33
S'R\xb8\x1e\x85\xab\x9f\xbc@'
tRp207
sS'test_error'
p208
Fnan
sa(dp209
S'status'
p210
I3
sS'std'
p211
g31
(g33
S'\x00\x00\x00\x00\x00\x00\x00\x00'
tRp212
sS'instance_durations'
p213
g36
(g37
(I0
tS'b'
tRp214
(I1
(I1
tg32
(S'f8'
I0
I1
tRp215
(I3
S'<'
NNNI-1
I-1
I0
tbI00
S'o\x12\x83\xc0\xcaq}@'
tbsS'instance_results'
p216
g36
(g37
(I0
tS'b'
tRp217
(I1
(I1
tg215
I00
S'x|{\xd7\xa0/\xd2?'
tbsS'test_error'
p218
Fnan
sS'params'
p219
g44
((lp220
(lp221
S'-max_features'
p222
aS'0.257573336213'
p223
aa(lp224
S'-min_samples_leaf'
p225
aS'9'
aa(lp226
S'-min_samples_split'
p227
aS'5'
aa(lp228
S'-n_estimators'
p229
aS'8'
aa(lp230
S'-n_jobs'
p231
aS'4'
aa(lp232
S'-seed'
p233
aS'66'
p234
aatRp235
sS'result'
p236
g31
(g33
S'x|{\xd7\xa0/\xd2?'
tRp237
sS'duration'
p238
g31
(g33
S'o\x12\x83\xc0\xcaq}@'
tRp239
sS'instance_status'
p240
g36
(g37
(I0
tS'b'
tRp241
(I1
(I1
tg32
(S'i8'
I0
I1
tRp242
(I3
S'<'
NNNI-1
I-1
I0
tbI00
S'\x03\x00\x00\x00\x00\x00\x00\x00'
tbsa(dp243
S'status'
p244
I3
sS'std'
p245
g31
(g33
S'\x00\x00\x00\x00\x00\x00\x00\x00'
tRp246
sS'instance_durations'
p247
g36
(g37
(I0
tS'b'
tRp248
(I1
(I1
tg32
(S'f8'
I0
I1
tRp249
(I3
S'<'
NNNI-1
I-1
I0
tbI00
S'\x00\x00\x00\x00\x00\x1b\xa3@'
tbsS'instance_results'
p250
g36
(g37
(I0
tS'b'
tRp251
(I1
(I1
tg249
I00
S'\xf8\xa8\xbf^a\xc1\xd2?'
tbsS'test_error'
p252
Fnan
sS'params'
p253
g44
((lp254
(lp255
S'-max_features'
p256
aS'0.766628890352'
p257
aa(lp258
S'-min_samples_leaf'
p259
aS'9'
aa(lp260
S'-min_samples_split'
p261
aS'7'
aa(lp262
S'-n_estimators'
p263
aS'23'
p264
aa(lp265
S'-n_jobs'
p266
aS'4'
aa(lp267
S'-seed'
p268
aS'75'
p269
aatRp270
sS'result'
p271
g31
(g33
S'\xf8\xa8\xbf^a\xc1\xd2?'
tRp272
sS'duration'
p273
g31
(g33
S'\x00\x00\x00\x00\x00\x1b\xa3@'
tRp274
sS'instance_status'
p275
g36
(g37
(I0
tS'b'
tRp276
(I1
(I1
tg32
(S'i8'
I0
I1
tRp277
(I3
S'<'
NNNI-1
I-1
I0
tbI00
S'\x03\x00\x00\x00\x00\x00\x00\x00'
tbsa(dp278
S'status'
p279
I3
sS'std'
p280
g31
(g33
S'\x00\x00\x00\x00\x00\x00\x00\x00'
tRp281
sS'instance_durations'
p282
g36
(g37
(I0
tS'b'
tRp283
(I1
(I1
tg32
(S'f8'
I0
I1
tRp284
(I3
S'<'
NNNI-1
I-1
I0
tbI00
S'\xa4p=\nW\xbe\xb6@'
tbsS'instance_results'
p285
g36
(g37
(I0
tS'b'
tRp286
(I1
(I1
tg284
I00
S'\x19q\x01h\x94.\xd2?'
tbsS'test_error'
p287
Fnan
sS'params'
p288
g44
((lp289
(lp290
S'-max_features'
p291
aS'0.580342281739'
p292
aa(lp293
S'-min_samples_leaf'
p294
aS'7'
aa(lp295
S'-min_samples_split'
p296
aS'1'
aa(lp297
S'-n_estimators'
p298
aS'80'
p299
aa(lp300
S'-n_jobs'
p301
aS'4'
aa(lp302
S'-seed'
p303
aS'55'
p304
aatRp305
sS'result'
p306
g31
(g33
S'\x19q\x01h\x94.\xd2?'
tRp307
sS'duration'
p308
g31
(g33
S'\xa4p=\nW\xbe\xb6@'
tRp309
sS'instance_status'
p310
g36
(g37
(I0
tS'b'
tRp311
(I1
(I1
tg32
(S'i8'
I0
I1
tRp312
(I3
S'<'
NNNI-1
I-1
I0
tbI00
S'\x03\x00\x00\x00\x00\x00\x00\x00'
tbsa(dp313
S'status'
p314
I2
sS'std'
p315
Fnan
sS'instance_durations'
p316
g36
(g37
(I0
tS'b'
tRp317
(I1
(I1
tg32
(S'f8'
I0
I1
tRp318
(I3
S'<'
NNNI-1
I-1
I0
tbI00
S'\x00\x00\x00\x00\x00\x00\xf8\x7f'
tbsS'instance_results'
p319
g36
(g37
(I0
tS'b'
tRp320
(I1
(I1
tg318
I00
S'\x00\x00\x00\x00\x00\x00\xf8\x7f'
tbsS'test_error'
p321
Fnan
sS'params'
p322
g44
((lp323
(lp324
S'-max_features'
p325
aS'0.413214205489'
p326
aa(lp327
S'-min_samples_leaf'
p328
aS'7'
aa(lp329
S'-min_samples_split'
p330
aS'3'
aa(lp331
S'-n_estimators'
p332
aS'93'
p333
aa(lp334
S'-n_jobs'
p335
aS'4'
aa(lp336
S'-seed'
p337
aS'62'
p338
aatRp339
sS'result'
p340
Fnan
sS'duration'
p341
Fnan
sS'instance_status'
p342
g36
(g37
(I0
tS'b'
tRp343
(I1
(I1
tg32
(S'i8'
I0
I1
tRp344
(I3
S'<'
NNNI-1
I-1
I0
tbI00
S'\x02\x00\x00\x00\x00\x00\x00\x00'
tbsasS'total_wallclock_time'
p345
F24786.579999999998
sS'experiment_name'
p346
S'pfahringer_cv_rank_perm_random_hyperopt_august2013_mod'
p347
sS'starttime'
p348
(lp349
F1399978877.6965799
as.