(dp1
S'trials'
p2
ccopy_reg
_reconstructor
p3
(chyperopt.base
Trials
p4
c__builtin__
object
p5
NtRp6
(dp7
S'attachments'
p8
(dp9
sS'_trials'
p10
(lp11
(dp12
S'refresh_time'
p13
cdatetime
datetime
p14
(S'\x07\xde\x05\r\x0b\x1a%\x0b\xea\xc8'
tRp15
sS'book_time'
p16
g14
(S'\x07\xde\x05\r\x0b\x01\x12\x08\xae\xa8'
tRp17
sS'misc'
p18
(dp19
S'tid'
p20
I0
sS'idxs'
p21
(dp22
S'max_features'
p23
(lp24
I0
asS'min_samples_split'
p25
(lp26
I0
asS'seed'
p27
(lp28
I0
asS'n_estimators'
p29
(lp30
I0
asS'min_samples_leaf'
p31
(lp32
I0
assS'cmd'
p33
(S'domain_attachment'
p34
S'FMinIter_Domain'
p35
tp36
sS'vals'
p37
(dp38
g23
(lp39
F0.88522708166383179
asg25
(lp40
F10
asg27
(lp41
F66
asg29
(lp42
F12
asg31
(lp43
F5
assS'workdir'
p44
NssS'state'
p45
I2
sg20
I0
sS'exp_key'
p46
NsS'version'
p47
I0
sS'result'
p48
(dp49
S'status'
p50
S'ok'
p51
sS'loss'
p52
F0.30024600000000001
ssS'owner'
p53
NsS'spec'
p54
Nsa(dp55
g13
g14
(S'\x07\xde\x05\r\x0b#\x0e\x06\xab\x08'
tRp56
sg16
g14
(S'\x07\xde\x05\r\x0b\x1a%\x0c\n\x08'
tRp57
sg18
(dp58
g20
I1
sg21
(dp59
g23
(lp60
I1
asg25
(lp61
I1
asg27
(lp62
I1
asg29
(lp63
I1
asg31
(lp64
I1
assg33
(g34
g35
tp65
sg37
(dp66
g23
(lp67
F0.1208021967928497
asg25
(lp68
F3
asg27
(lp69
F31
asg29
(lp70
F27
asg31
(lp71
F5
assg44
Nssg45
I2
sg20
I1
sg46
Nsg47
I0
sg48
(dp72
g50
g51
sg52
F0.27721800000000002
ssg53
Nsg54
Nsa(dp73
g13
g14
(S'\x07\xde\x05\r\x0c\x05-\n\xaax'
tRp74
sg16
g14
(S'\x07\xde\x05\r\x0b#\x0e\x06\xc6`'
tRp75
sg18
(dp76
g20
I2
sg21
(dp77
g23
(lp78
I2
asg25
(lp79
I2
asg27
(lp80
I2
asg29
(lp81
I2
asg31
(lp82
I2
assg33
(g34
g35
tp83
sg37
(dp84
g23
(lp85
F0.26476124224355668
asg25
(lp86
F5
asg27
(lp87
F14
asg29
(lp88
F47
asg31
(lp89
F6
assg44
Nssg45
I2
sg20
I2
sg46
Nsg47
I0
sg48
(dp90
g50
g51
sg52
F0.27479199999999998
ssg53
Nsg54
Nsa(dp91
g13
g14
(S'\x07\xde\x05\r\r\x1a(\x04\x0f\x10'
tRp92
sg16
g14
(S'\x07\xde\x05\r\x0c\x05-\n\xc9\xb8'
tRp93
sg18
(dp94
g20
I3
sg21
(dp95
g23
(lp96
I3
asg25
(lp97
I3
asg27
(lp98
I3
asg29
(lp99
I3
asg31
(lp100
I3
assg33
(g34
g35
tp101
sg37
(dp102
g23
(lp103
F0.90548029094981231
asg25
(lp104
F1
asg27
(lp105
F60
asg29
(lp106
F44
asg31
(lp107
F6
assg44
Nssg45
I2
sg20
I3
sg46
Nsg47
I0
sg48
(dp108
g50
g51
sg52
F0.29729
ssg53
Nsg54
Nsa(dp109
g13
g14
(S'\x07\xde\x05\r\x0f\x1c0\x05W0'
tRp110
sg16
g14
(S'\x07\xde\x05\r\r\x1a(\x0428'
tRp111
sg18
(dp112
g20
I4
sg21
(dp113
g23
(lp114
I4
asg25
(lp115
I4
asg27
(lp116
I4
asg29
(lp117
I4
asg31
(lp118
I4
assg33
(g34
g35
tp119
sg37
(dp120
g23
(lp121
F0.60398596509385383
asg25
(lp122
F8
asg27
(lp123
F5
asg29
(lp124
F86
asg31
(lp125
F9
assg44
Nssg45
I2
sg20
I4
sg46
Nsg47
I0
sg48
(dp126
g50
g51
sg52
F0.28358100000000003
ssg53
Nsg54
Nsa(dp127
g13
g14
(S"\x07\xde\x05\r\x0f$'\x0e\x15x"
tRp128
sg16
g14
(S'\x07\xde\x05\r\x0f\x1c0\x05r\x88'
tRp129
sg18
(dp130
g20
I5
sg21
(dp131
g23
(lp132
I5
asg25
(lp133
I5
asg27
(lp134
I5
asg29
(lp135
I5
asg31
(lp136
I5
assg33
(g34
g35
tp137
sg37
(dp138
g23
(lp139
F0.2575733362129452
asg25
(lp140
F5
asg27
(lp141
F66
asg29
(lp142
F8
asg31
(lp143
F9
assg44
Nssg45
I2
sg20
I5
sg46
Nsg47
I0
sg48
(dp144
g50
g51
sg52
F0.28415699999999999
ssg53
Nsg54
Nsa(dp145
g13
g14
(S'\x07\xde\x05\r\x10\x11\x1d\n\x02\x80'
tRp146
sg16
g14
(S"\x07\xde\x05\r\x0f$'\x0eoP"
tRp147
sg18
(dp148
g20
I6
sg21
(dp149
g23
(lp150
I6
asg25
(lp151
I6
asg27
(lp152
I6
asg29
(lp153
I6
asg31
(lp154
I6
assg33
(g34
g35
tp155
sg37
(dp156
g23
(lp157
F0.76662889035231263
asg25
(lp158
F7
asg27
(lp159
F75
asg29
(lp160
F23
asg31
(lp161
F9
assg44
Nssg45
I2
sg20
I6
sg46
Nsg47
I0
sg48
(dp162
g50
g51
sg52
F0.29305300000000001
ssg53
Nsg54
Nsa(dp163
g13
g14
(S'\x07\xde\x05\r\x116&\x02\xee\x00'
tRp164
sg16
g14
(S'\x07\xde\x05\r\x10\x11\x1d\n\xae`'
tRp165
sg18
(dp166
g20
I7
sg21
(dp167
g23
(lp168
I7
asg25
(lp169
I7
asg27
(lp170
I7
asg29
(lp171
I7
asg31
(lp172
I7
assg33
(g34
g35
tp173
sg37
(dp174
g23
(lp175
F0.58034228173899483
asg25
(lp176
F1
asg27
(lp177
F55
asg29
(lp178
F80
asg31
(lp179
F7
assg44
Nssg45
I2
sg20
I7
sg46
Nsg47
I0
sg48
(dp180
g50
g51
sg52
F0.28409299999999998
ssg53
Nsg54
NsasS'_exp_key'
p181
NsS'_dynamic_trials'
p182
(lp183
g12
ag55
ag73
ag91
ag109
ag127
ag145
ag163
asS'_ids'
p184
c__builtin__
set
p185
((lp186
I0
aI1
aI2
aI3
aI4
aI5
aI6
aI7
atRp187
sbsS'domain'
p188
g3
(chyperopt.fmin
Domain
p189
g5
NtRp190
(dp191
g33
(g34
g35
tp192
sS'name'
p193
NsS's_new_ids'
p194
g3
(chyperopt.pyll.base
Literal
p195
g5
NtRp196
(dp197
g193
S'literal'
p198
sS'pos_args'
p199
(lp200
sS'named_args'
p201
(lp202
sS'o_len'
p203
I7
sS'_obj'
p204
S'new_ids'
p205
sS'pure'
p206
I01
sbsS'vh'
p207
g3
(chyperopt.vectorize
VectorizeHelper
p208
g5
NtRp209
(dp210
S'take_memo'
p211
(dp212
g3
(chyperopt.pyll.base
Apply
p213
g5
NtRp214
(dp215
g203
Nsg206
I01
sg193
S'float'
p216
sg199
(lp217
g3
(g213
g5
NtRp218
(dp219
g203
Nsg206
I00
sg193
S'hyperopt_param'
p220
sg199
(lp221
g3
(g195
g5
NtRp222
(dp223
g193
g198
sg199
(lp224
sg201
(lp225
sg203
I4
sg204
g27
sg206
I01
sbag3
(g213
g5
NtRp226
(dp227
g203
Nsg206
I00
sg193
S'quniform'
p228
sg199
(lp229
g3
(g195
g5
NtRp230
(dp231
g193
g198
sg199
(lp232
sg201
(lp233
sg203
Nsg204
I1
sg206
I01
sbag3
(g195
g5
NtRp234
(dp235
g193
g198
sg199
(lp236
sg201
(lp237
sg203
Nsg204
I100
sg206
I01
sbag3
(g195
g5
NtRp238
(dp239
g193
g198
sg199
(lp240
sg201
(lp241
sg203
Nsg204
I1
sg206
I01
sbasg201
(lp242
(S'rng'
p243
g3
(g195
g5
NtRp244
(dp245
g193
g198
sg199
(lp246
sg201
(lp247
sg203
Nsg204
cnumpy.random
__RandomState_ctor
p248
(tRp249
(S'MT19937'
p250
cnumpy.core.multiarray
_reconstruct
p251
(cnumpy
ndarray
p252
(I0
tS'b'
tRp253
(I1
(I624
tcnumpy
dtype
p254
(S'u4'
I0
I1
tRp255
(I3
S'<'
NNNI-1
I-1
I0
tbI00
S'\x93\xfa\xab\x9c\x08\xdd\xa6(i\xdfl\x90\r\xb7Uj\xd0\t\x98 \x84\xba\xb3#\xd7\x18\xc8\xff=\xc8GJ\xa6\xb4\x1d\xa7Or\xe4v3\x9bv9\xd9\xa0~\x9e\xe8:\x923\xfar\xc8\xa6\x97\xe6{\x9c\x9c\xa6LV\xb9C\xad\xee\xb8R\xa4\xe4^i\xc5\x10\xb0\x8d\xc9q\x8c@\x83\xea\x9bG\x01\xce\xc9l\x04\xa3\xba\xfb\xb6]}\xee+\xb0\xdai\x97\xfd\xdf\xacn\x9dc\x1c\xea\x1aV\xe0F_\xe1J\xb3cG\x968!\x87\x8c\x8cm\x15\x1f!\xd1\x16\x18\xe458E0\x12\x9e\xe7&\r\xef\xa3\x16\xdcW\xb8\xc2\x13\x16\x85\xcb\xf6\x84\xcc\xd7C\xe5\xa0Y}R\'\xcf\xc6\xc0\x1b\xc7_\x8f\x96 \x14*M\xdb\xa5\xed\x19\xa0\x8bO\x06vO\x9f\x96\xc3\x7f:\xe5M\x1b\x82\xee\xdb\x9d\xf3E\xb1\x0f\x8c\xe2Zv\x84UC\x12 \xc5\x11\xfc5x\x03\xef6\\\xebq\x05c\xdfZ\x141\x93\x93C\xcaX0\x99z\xd3-\x97\xf5dL\xd1\xc5\x81\x94{\xfa\x9ei[V\r\xb7\x01\xd7\x8df&\xddw\x1a\xef\x98l\x0b)\x0f^\xa7\xce-\xa4\xfcJ\x01\x8d\xd1\x80\x0e\x01Z]\xd3\x84}\x0e6F38F[\xe40\xb6]q^kn~a~TEF\x0fC\x8dp`Z_}t\x8e\x87\xd2\xff\xf9\x00\xa9\x11\x172:Z%\xacW\xee\xb3\x8d\xdf\xb5\xf5\x8b6\xf8\x9d\xee\xa8\xf9\x1fz\xb0]H\xef\xfc\xff\x8e\x95!\xcf\xd5\x18\xf9\xa8\xef\xe7\xd1\x9f!\xa3\xfef\xbb\x02e\xeeOr\x03 \xe1\xa70\x19\x1cD$z\xad\x19z\x1c\x7fL\xf0\xca\x9e\xcaD\xab\xf6\xf3\xbe/\xad1Y&\xaf\x90\xfe\xb8\x9b\xbf\x94B\xa9\\Z\xcf\xb71x\xa4\nK\xf9(\xa9\x87\xf4\xa1y\x8480\xe9\x83\x99I!^\xfcz\x93u\xf4\x04s\xc1\x7fK\x98T\xb7\xd8\x05-\xd4\xd1\x84\xe0\xa9\xbaoX\xf8\xe6\xbe\xa0\xc1/\xf9\xe3\x0chA\xd9\x03KFmg\x07\x028e8T\xc3\xfb\x9f\xad+\x84)p\x9fz\x89\x94\x9f])3~\xf0\xc2\xdd\xdabyzP\x10t\x97%\xe0\xabt\xdd\xde%H\x81\xbf S&\x15\x1d\xd2\x11^`(o\x8d9\xe9\xb2\xa6\xcc\xa7\xf9\xe1\xb1\r\xf4\xd2\x0c\xa8\xe1\xa5\x08\x98ak\xf0\xb3\x8f{\x0e\x88\xb0,\xad\xae\xb9\xe2\r\xd0\x03\x8eL\xebV\xf1/\xa2\x83E.0]Y\x15\x8a\xb3\x05z\xd8\xfcu\xd0\x8d\r\xd6\xe7\x00\xc6\x13\x01}\x9ad\xf8\'\'v5\xb7\xfb~j}\x0c\xfb\xac\xa1\xc3{-\x9a\xde\x17=\xb2\xc6\xd2\xe7\xac\xc8y\xd8\x85;\xac\x04%\xc5;\x0c\xf4\xee\x97 UH\xe6k\xf9\x88\xbfn\xf7\xb2\xd8\xce\xc0e\xdbN\x00Pa\xda\x9b\x0fl\xca\x1f\x82Q; \\\xad\xb0,\xe6\x13M\xa3{1\x7fr\xb2\x1aH\xbcs5\x9b\x8bu\xdc8\xee\xc8\x13\xce\x86\xafi\x07\xc4\xd0\x89\x97\x13\xe6\x03\xef\x07uh^\x18\x80\xad\xf6,+@\xb5\xbez#\xe7\x1d\xcb\xd4\xc7\xff\xfe\x97\x19|x\xf6\xb6\x18\xcdvi\xd3\xf5\xfb\x0e\xff\x164}X\xc63y\xbe/\x86s\xd8\xfe\xec\x93\x9d\xd2`\x0b\xaa\x04(\xa2j\xbew"\xdf\xb2\xd3\x98H\xfc\xbb7\xa6\x8d\x93\xd8\xf6\xa8\xf3\xbc+V~\xcf\x11pwZI#_0\xa8Z|\r4G?D\xd4nz\x19\xfa\xf4\x83i#\r\x1f\xed\xad\x08\x12\xe1\x97\x02\xae\xd1\x08\xc7\x8d\x86\xad\x1b>@:d\xb1J\x878\x88\xb1\x15\xba~\x17\x8a\xe3@\x92\x80S\x11\x10\x1cnJ\xc6X:\xb7]\xfe\x1f\xc2Y\xe5\x96\xd74,\x95\xf0\xf4\xee\xfa\x0cF\xdc\x16}z\xd4\xba\xf7b\xe1\xb0^EpV\x08Y\r\xfe\xa6\x88("\x972?\x80\xbc\xfaN\xc8\xc3\xdf\xfd\x9e8\xc1`\xb2\xd2\xbb\xd4\xee\xdc\x91\xdf:\xfa*\x8f\xc5\xd4mhcl\xef\xed4BJv+\x00\x12tz7\xf3\xbfd%\xe1\x008|\xaf\xec\x18\x01#\x01\x98O\xd2\n\x9c+\xe0\xf8$6\xc5\x8f\xc8\xb2W\xfe\x8d\xfd\xa7\x10m\xf4\x1c\xe7\xbb\x90DUn\xe8\x0b\x9f\xbb\xe7\x12\xd9\xd9\xd8\xf9\x1d\x00\x00>*!*\x8b\xea8\xad\xb2a\xb9\x86\x8c\x07\x0c\xae\xc4\x00\xef\xf0+f\xe7\xbb;wp\x86\xef(\x99H=C\xb9\xfd?\xea\xb6\x84\xf1)\xa5\xd2\x9a\xb1\xc7\x1d2\x8c\xb9X_\xea\xf0\xeb\x14\x87\x8f\x92R\xea\xea\xd3\xde\xe7\xe9\xa6\x1f\xfc\x97]\x1f\x08h\x8c\xedZPw\xe8\x9b9\x12"t=rt\x1fo\x9c6Dz\xa2Kb\xe3na>\xe8\xa9\x0b\xf8\xa4\x1e}v\xdfX\x00\xa1\xd2\x16\xa6\xb5\x1b\xb7\xc3\x91\x92\x0c\xeb \x13}rOC\x93(>\x96S\x14\n\xc2\xe3\xa7U?\xd6\xa4D\xaa\x05\x08o\xb9\x92ag\xbf{\xdd\xb76\xe0\x9b\xa1\xe0\xe4h=X\x1c(@\x13(\x048\xfc"\x96\xdf!H\x94\xd2C`\xc1\\\x91\xce\x03\xef\x1d1\xfc\x92\xc09\xfd2\xf8\xe6\xcd\xc7A\xf9Cf\xa5\xaf\x8c\xd5Z6\x0f\x1d\xd49 \xd9\xec-\'\x9d\x90D\xe8v8\x8d\xbc\xff\xc0\xd6Tj\x9d^+\xc9\xbb\x02\xaf\xd5\xdeO\xc3\xbb\x94u\xe7\xda\x16\xb9\x8fe\xe3\xab2\x0b\x15\xe8J\x81\xd2s\x1a\x0c\xf3\x11\x92Uk\\+\x90\x0e\xb7\x1c\xb6A7\x00\xd0\xc0w\x95\xc2\xb8\xe6\x84\xb1\xbe]\xfe\x19\x88\x7fF\xbdm\xce\xc2\xbf\xe6;D\xf9\x96Jt\xeb\xd0U\'\xad\x1c\x91\xa1\xc0!\x1aM\xf4\xc6\xcc\xc9\xc7\x1fX\xf1\xe7\xbe|\xae\x80Z\x1bR\xa8V\x0f\x16\xcdc\x08\xcaW6\x064\x9bj\xad\t\xee99\xb8"\xc3v\xde\xb9n~\xbe\x1b\x13z\\\xaa\x18-\xf3\xc1\xe8f\xe9\xeaW\x81S\xc0\xaa\x1c\xff\xed\x8d\x97\xeb\xf7\x10zV\x85\x981~\xc7\xc6`\xb3F\x8f+\x1f_\xe3\x04\x8f.(mU\xb0\x90\xa3<^s\xe18\xb8\xadc\\DC\xf8i\xc7\xac\xef\xfa;\xd5\x96\xa5\x87\x86\x0c\x89@\xaa)\xc7!\xca\x83\xa6?\xc9$\xe8\xa6\xc0yC\xb9\x0f\xefD\xf2\x17\xbc\xfe\xfd\x07\x06\xf8\xde<\xee\x80VWk-C\x9b{d_\xb5B\xce\xed\xcc\x10\xd0#\xd3\x1d|c\x80\xeb\x98$\xad\xd7\xa5PM\xd6e;@\xa6M(*"\xd0#,\x99\x9b\x0bOxUh\xf5i4AEAF\xa6\xad\xab\xce\'\xe4\x9c\xb0\xa2\x81\x89\xcb\xb3\xf8\xb4\x9bS\xd3\x7f>\x12H\xc6Wf\xe9\xc4+\x94/\xd4\x9e\xd6\xdc9-\xac\xa8\xbb\x02\xf8\x0f\x8by\xd1\xb6(\xa0\x18-\xacA\x97\x82\xe2\xf3\x17`\xf3\x1a&\xcb\x91\x84\x00\x917\xbd\xdc\x8a\xd7nq~\x95$\xcc^\xc5\x1a\xe3\xc7\x02\xe6\xab\x82qB\x9en\xe2\\\x1dX\xea\x88WB\n\xcb\xa3\x1dZ\x9f6\xcb\xce\x1a\xcd\xe3\xa9\xf9\x1c\xd6<A\x15\xc3OJ89m\xf9\x02[RM\x86\x0f:\x0c\x07\t\xd3\xee@c\xf7\xa8\x04P\xf7\xc3\xe9x-\xa8\xd1\x19@l)b\x83k\x9dF9\x03n\xb4\x14\x18\xa9Y2Z\r\xba\x8aPN\xde%\xabf\xbc\x8c\x889Cg\xbcO\xc8a\xc4f\xe2F\xff\xc7\xf5\x04\x1e\xe9\r\xd6\x85\x9d\xc3\xbf<Y)rw\xb2\xa0E\x92\xdcH\xa4\xe9\x92!\xad$w\xb1\xb1\xbb39\xdb\xd3\xd7\xa9\x7f4\xc7\xe2\xf0^\xb7\xaa\xb2dnB\xb1\xfa`\xc1\xd1\xfakP\x00\xb6\xd7S\xd5\xddE\xcaS>\xa5.\xb3\xba$\xcdL\xf0\xca\xb4\x14\x16\xf4Q\xcb2\x8eg7\xdbHD/\xc8\xde\x0b;\xbd\xf8\xc0\x85\x05\xbe\xbc{\xcf\x8bE\xa88"\x018\x17u\x9b\x02\xd4t;\t>O\xc6\xed\xe8\xd4S\xa6\x89rd\xfb;\xc730\xbf\xbf\xfe\xed\n\x01\xa6\xcb#\xf8\x7f\x80\xfe+\xf1b\xdaF6bB\xba\xa2\x9a\xf0\x1f\xdc\xe7B\x8a\x03\xb3\x80\x9f\xdeq\x17y\xaf\xff\x90@\xa3z\xe4\t\xa6K\xef\xa71~\xd6\xaa\xb4\x02mI\x0f\xa2\x86\x91VX\x8b\xc0\x85x\xf6\xe5[5\r\xec\x19!\x97\xe1\x07\xee\xa7"\xae\x84\x05\xfaT,\xdd\xb8s\xc9m\xd8q\x90\xe7\x9b\xe5\xd5\x8e!~\x0f\x0f\xd9\x8d\xa3\xd9\x15]\xafs\xa4\xf0\xda\x1d\xa0\xfcY\x94\x13O2m\xc9\x8f\x9d\xd4\xf3\xb4\xd2\xce\xbfe\xde\x1f\x08\xb9\x81]\x14\xe2\x96\xf6\xdfr\xf1\xe3\xe7\x80gq/\x9bJQb\x04hK\x8aK\xda\xe7\x85Et\xa4{<3[\xa6\x19\x95\x8f$\'\xad\x95\x83\xfb\xcaOXa\x17\\\xc9\xb9k\x0b\xc2\n\xc8<\xa3zp\x91\x02\xc24\xb5\xe3Wd\x08\xc8\x96\xc9\xf4w\xa5\n\x15\x00\xe4\xe9\x8c\x18FY\x86\xc3_\x8e\x8b\x0b\x13\xdd\x12\x9ad=\xea\xed\x07\xca\xb1\xeb\n0\x16\xd3\x92\xee\x1e\x01\x01\xd7\xc6\xc8]xW-%\xa2\xd0\xe6\xc4\xa1\x99?\xe0\xb6n\xb1ic\xcc\r\x94\x96|M\n\x14b\x18\xd3\xbc\xe0\xa3\x8f^s\xc7 f\xe3\xa8`E\xbaZ\x0f`4\xc4\x95`H\xa8\xb9\x06\xc8\x1a#\xec\x0b|\xd2\xd6\xd1\xdd\xd1isj\x11\x9fi\xb0\xbcv.\xc2\xc7\xe8\x03F?\xbb\x85\xad.|,\xac\x04\xcf\xcf#6n\xf6\x8f:tu\x1f(EI\xf7\x08\xa3Al\x96Q\xd0=(\xcf\xffB\x19\x80%p1B8\xfe\x85\xdc\x1byz\xcf\xb0\xado\xafO\x83\xfe\x81\t\x0b\xe6\x8a\xba\xcf\xd5\xbe\xa5\x02\x97\xf7\xcd\x05p\xe5$\xbc\x02W\xd3T\xc9\xf2\xeaQ\x97*\xa9\x7f\x8e\xfa\xc7\xaa\x99\x86}\x92\x80,\x9a\xa0\x97m-1X\xee9\xa8\x19\xa4\x9d:\x9f\xf2\t\x11\x06_Lt3\x13B\xb0\x05B\xf3\x0c"\x94\xed\xb6G\xa8\xde\xa5\xee\x9a\xdf\x9a\xb8\xcf{G~L\x11\xf6\xb2\xc5\x0e3\xf5\xfd1\xdb\x8fR[\xa0\x85|[\xc5\xb4\xa2p\x1d\x04R7s\x80\xce\x13\x88"\xe0\xc9Y\x00\x0c\xdbpoK,p:bx\xe7k\x14gZ\xf50C\x1aLh\xf5+\x10Gz1s\x17\x8c\\\x00\xdd~y(\xbe\x92\xd9\x02Jk\x92_Y7\xef\xeb\x1aM:\xd3\xa8\x19\xa2\xa9o"4\xde\x9e$\x9aG\x01\x1e\x9d\xf6\xa3\xe5D+\xfbP\x15\x03\xf7\xdd\n\xe7\xfbC\xdb\x91\xff\x11\xf2\xe8\x8dx\xc4\xb0\xd7W\xc4\xa1\xc2i\x9f\x02\xe82\x0b\xf0\x17eU;M\xc1M\x86\xbe\xedE\xba'
tbI10
I0
F0
tbsg206
I01
sbtp256
asbasg201
(lp257
sbasg201
(lp258
sb(lp259
g3
(g213
g5
NtRp260
(dp261
g203
Nsg206
I01
sg193
S'idxs_take'
p262
sg199
(lp263
g3
(g213
g5
NtRp264
(dp265
g203
Nsg206
I01
sg193
S'array_union'
p266
sg199
(lp267
g3
(g213
g5
NtRp268
(dp269
g203
Nsg206
I01
sg193
g266
sg199
(lp270
g3
(g213
g5
NtRp271
(dp272
g203
Nsg206
I01
sg193
g266
sg199
(lp273
g196
asg201
(lp274
sbasg201
(lp275
sbasg201
(lp276
sbag3
(g213
g5
NtRp277
(dp278
g203
Nsg206
I01
sg193
S'idxs_map'
p279
sg199
(lp280
g264
ag3
(g195
g5
NtRp281
(dp282
g193
g198
sg199
(lp283
sg201
(lp284
sg203
I5
sg204
g216
sg206
I01
sbag3
(g213
g5
NtRp285
(dp286
g203
Nsg206
I00
sg193
g199
sg199
(lp287
g264
ag3
(g213
g5
NtRp288
(dp289
g203
Nsg206
I01
sg193
g262
sg199
(lp290
g3
(g213
g5
NtRp291
(dp292
g203
Nsg206
I01
sg193
g266
sg199
(lp293
g264
asg201
(lp294
sbag3
(g213
g5
NtRp295
(dp296
g203
Nsg206
I00
sg193
g228
sg199
(lp297
g230
ag234
ag238
asg201
(lp298
(lp299
S'size'
p300
ag3
(g213
g5
NtRp301
(dp302
g203
Nsg206
I01
sg193
S'len'
p303
sg199
(lp304
g291
asg201
(lp305
sbaa(g243
g3
(g195
g5
NtRp306
(dp307
g193
g198
sg199
(lp308
sg201
(lp309
sg203
Nsg204
g249
sg206
I01
sbtp310
asbag264
asg201
(lp311
sbasg201
(lp312
sbasg201
(lp313
sbag268
asg201
(lp314
sbasg3
(g213
g5
NtRp315
(dp316
g203
Nsg206
I01
sg193
S'int'
p317
sg199
(lp318
g214
asg201
(lp319
sb(lp320
g3
(g213
g5
NtRp321
(dp322
g203
Nsg206
I01
sg193
g262
sg199
(lp323
g268
ag3
(g213
g5
NtRp324
(dp325
g203
Nsg206
I01
sg193
g279
sg199
(lp326
g268
ag3
(g195
g5
NtRp327
(dp328
g193
g198
sg199
(lp329
sg201
(lp330
sg203
I3
sg204
g317
sg206
I01
sbag3
(g213
g5
NtRp331
(dp332
g203
Nsg206
I00
sg193
g199
sg199
(lp333
g268
ag260
asg201
(lp334
sbasg201
(lp335
sbag271
asg201
(lp336
sbasg3
(g213
g5
NtRp337
(dp338
g203
Nsg206
I01
sg193
g216
sg199
(lp339
g3
(g213
g5
NtRp340
(dp341
g203
Nsg206
I00
sg193
g220
sg199
(lp342
g3
(g195
g5
NtRp343
(dp344
g193
g198
sg199
(lp345
sg201
(lp346
sg203
I12
sg204
g29
sg206
I01
sbag3
(g213
g5
NtRp347
(dp348
g203
Nsg206
I00
sg193
g228
sg199
(lp349
g3
(g195
g5
NtRp350
(dp351
g193
g198
sg199
(lp352
sg201
(lp353
sg203
Nsg204
I1
sg206
I01
sbag3
(g195
g5
NtRp354
(dp355
g193
g198
sg199
(lp356
sg201
(lp357
sg203
Nsg204
I100
sg206
I01
sbag3
(g195
g5
NtRp358
(dp359
g193
g198
sg199
(lp360
sg201
(lp361
sg203
Nsg204
I1
sg206
I01
sbasg201
(lp362
(g243
g244
tp363
asbasg201
(lp364
sbasg201
(lp365
sb(lp366
g3
(g213
g5
NtRp367
(dp368
g203
Nsg206
I01
sg193
g262
sg199
(lp369
g3
(g213
g5
NtRp370
(dp371
g203
Nsg206
I01
sg193
g266
sg199
(lp372
g3
(g213
g5
NtRp373
(dp374
g203
Nsg206
I01
sg193
g266
sg199
(lp375
g271
asg201
(lp376
sbasg201
(lp377
sbag3
(g213
g5
NtRp378
(dp379
g203
Nsg206
I01
sg193
g279
sg199
(lp380
g370
ag3
(g195
g5
NtRp381
(dp382
g193
g198
sg199
(lp383
sg201
(lp384
sg203
I5
sg204
g216
sg206
I01
sbag3
(g213
g5
NtRp385
(dp386
g203
Nsg206
I00
sg193
g199
sg199
(lp387
g370
ag3
(g213
g5
NtRp388
(dp389
g203
Nsg206
I01
sg193
g262
sg199
(lp390
g3
(g213
g5
NtRp391
(dp392
g203
Nsg206
I01
sg193
g266
sg199
(lp393
g370
asg201
(lp394
sbag3
(g213
g5
NtRp395
(dp396
g203
Nsg206
I00
sg193
g228
sg199
(lp397
g350
ag354
ag358
asg201
(lp398
(lp399
g300
ag3
(g213
g5
NtRp400
(dp401
g203
Nsg206
I01
sg193
g303
sg199
(lp402
g391
asg201
(lp403
sbaa(g243
g306
tp404
asbag370
asg201
(lp405
sbasg201
(lp406
sbasg201
(lp407
sbag373
asg201
(lp408
sbasg3
(g213
g5
NtRp409
(dp410
g203
Nsg206
I01
sg193
g317
sg199
(lp411
g337
asg201
(lp412
sb(lp413
g3
(g213
g5
NtRp414
(dp415
g203
Nsg206
I01
sg193
g262
sg199
(lp416
g373
ag3
(g213
g5
NtRp417
(dp418
g203
Nsg206
I01
sg193
g279
sg199
(lp419
g373
ag3
(g195
g5
NtRp420
(dp421
g193
g198
sg199
(lp422
sg201
(lp423
sg203
I3
sg204
g317
sg206
I01
sbag3
(g213
g5
NtRp424
(dp425
g203
Nsg206
I00
sg193
g199
sg199
(lp426
g373
ag367
asg201
(lp427
sbasg201
(lp428
sbag271
asg201
(lp429
sbasg230
(lp430
g3
(g213
g5
NtRp431
(dp432
g203
Nsg206
I01
sg193
g262
sg199
(lp433
g3
(g213
g5
NtRp434
(dp435
g203
Nsg206
I01
sg193
g266
sg199
(lp436
g196
asg201
(lp437
sbag3
(g213
g5
NtRp438
(dp439
g203
Nsg206
I01
sg193
S'asarray'
p440
sg199
(lp441
g3
(g213
g5
NtRp442
(dp443
g203
Nsg206
I01
sg193
S'repeat'
p444
sg199
(lp445
g3
(g213
g5
NtRp446
(dp447
g203
Nsg206
I01
sg193
g303
sg199
(lp448
g196
asg201
(lp449
sbag230
asg201
(lp450
sbasg201
(lp451
sbag291
asg201
(lp452
sbasg3
(g213
g5
NtRp453
(dp454
g203
Nsg206
I00
sg193
S'uniform'
p455
sg199
(lp456
g3
(g195
g5
NtRp457
(dp458
g193
g198
sg199
(lp459
sg201
(lp460
sg203
Nsg204
F0.10000000000000001
sg206
I01
sbag3
(g195
g5
NtRp461
(dp462
g193
g198
sg199
(lp463
sg201
(lp464
sg203
Nsg204
I1
sg206
I01
sbasg201
(lp465
(g243
g244
tp466
asb(lp467
g3
(g213
g5
NtRp468
(dp469
g203
Nsg206
I01
sg193
g262
sg199
(lp470
g3
(g213
g5
NtRp471
(dp472
g203
Nsg206
I01
sg193
g266
sg199
(lp473
g3
(g213
g5
NtRp474
(dp475
g203
Nsg206
I01
sg193
g266
sg199
(lp476
g271
asg201
(lp477
sbasg201
(lp478
sbag3
(g213
g5
NtRp479
(dp480
g203
Nsg206
I00
sg193
g455
sg199
(lp481
g457
ag461
asg201
(lp482
(lp483
g300
ag3
(g213
g5
NtRp484
(dp485
g203
Nsg206
I01
sg193
g303
sg199
(lp486
g471
asg201
(lp487
sbaa(g243
g306
tp488
asbag474
asg201
(lp489
sbasg457
(lp490
g3
(g213
g5
NtRp491
(dp492
g203
Nsg206
I01
sg193
g262
sg199
(lp493
g3
(g213
g5
NtRp494
(dp495
g203
Nsg206
I01
sg193
g266
sg199
(lp496
g196
asg201
(lp497
sbag3
(g213
g5
NtRp498
(dp499
g203
Nsg206
I01
sg193
g440
sg199
(lp500
g3
(g213
g5
NtRp501
(dp502
g203
Nsg206
I01
sg193
g444
sg199
(lp503
g3
(g213
g5
NtRp504
(dp505
g203
Nsg206
I01
sg193
g303
sg199
(lp506
g196
asg201
(lp507
sbag457
asg201
(lp508
sbasg201
(lp509
sbag471
asg201
(lp510
sbasg461
(lp511
g3
(g213
g5
NtRp512
(dp513
g203
Nsg206
I01
sg193
g262
sg199
(lp514
g3
(g213
g5
NtRp515
(dp516
g203
Nsg206
I01
sg193
g266
sg199
(lp517
g196
asg201
(lp518
sbag3
(g213
g5
NtRp519
(dp520
g203
Nsg206
I01
sg193
g440
sg199
(lp521
g3
(g213
g5
NtRp522
(dp523
g203
Nsg206
I01
sg193
g444
sg199
(lp524
g3
(g213
g5
NtRp525
(dp526
g203
Nsg206
I01
sg193
g303
sg199
(lp527
g196
asg201
(lp528
sbag461
asg201
(lp529
sbasg201
(lp530
sbag471
asg201
(lp531
sbasg3
(g213
g5
NtRp532
(dp533
g203
Nsg206
I01
sg193
g216
sg199
(lp534
g3
(g213
g5
NtRp535
(dp536
g203
Nsg206
I00
sg193
g220
sg199
(lp537
g3
(g195
g5
NtRp538
(dp539
g193
g198
sg199
(lp540
sg201
(lp541
sg203
I12
sg204
g23
sg206
I01
sbag453
asg201
(lp542
sbasg201
(lp543
sb(lp544
g3
(g213
g5
NtRp545
(dp546
g203
Nsg206
I01
sg193
g262
sg199
(lp547
g474
ag3
(g213
g5
NtRp548
(dp549
g203
Nsg206
I01
sg193
g279
sg199
(lp550
g474
ag3
(g195
g5
NtRp551
(dp552
g193
g198
sg199
(lp553
sg201
(lp554
sg203
I5
sg204
g216
sg206
I01
sbag3
(g213
g5
NtRp555
(dp556
g203
Nsg206
I00
sg193
g199
sg199
(lp557
g474
ag468
asg201
(lp558
sbasg201
(lp559
sbag271
asg201
(lp560
sbasg3
(g213
g5
NtRp561
(dp562
g203
Nsg206
I00
sg193
g228
sg199
(lp563
g3
(g195
g5
NtRp564
(dp565
g193
g198
sg199
(lp566
sg201
(lp567
sg203
Nsg204
I1
sg206
I01
sbag3
(g195
g5
NtRp568
(dp569
g193
g198
sg199
(lp570
sg201
(lp571
sg203
Nsg204
I10
sg206
I01
sbag3
(g195
g5
NtRp572
(dp573
g193
g198
sg199
(lp574
sg201
(lp575
sg203
Nsg204
I1
sg206
I01
sbasg201
(lp576
(g243
g244
tp577
asb(lp578
g3
(g213
g5
NtRp579
(dp580
g203
Nsg206
I01
sg193
g262
sg199
(lp581
g3
(g213
g5
NtRp582
(dp583
g203
Nsg206
I01
sg193
g266
sg199
(lp584
g3
(g213
g5
NtRp585
(dp586
g203
Nsg206
I01
sg193
g266
sg199
(lp587
g3
(g213
g5
NtRp588
(dp589
g203
Nsg206
I01
sg193
g266
sg199
(lp590
g271
asg201
(lp591
sbasg201
(lp592
sbasg201
(lp593
sbag3
(g213
g5
NtRp594
(dp595
g203
Nsg206
I00
sg193
g228
sg199
(lp596
g564
ag568
ag572
asg201
(lp597
(lp598
g300
ag3
(g213
g5
NtRp599
(dp600
g203
Nsg206
I01
sg193
g303
sg199
(lp601
g582
asg201
(lp602
sbaa(g243
g306
tp603
asbag585
asg201
(lp604
sbasg564
(lp605
g3
(g213
g5
NtRp606
(dp607
g203
Nsg206
I01
sg193
g262
sg199
(lp608
g3
(g213
g5
NtRp609
(dp610
g203
Nsg206
I01
sg193
g266
sg199
(lp611
g196
asg201
(lp612
sbag3
(g213
g5
NtRp613
(dp614
g203
Nsg206
I01
sg193
g440
sg199
(lp615
g3
(g213
g5
NtRp616
(dp617
g203
Nsg206
I01
sg193
g444
sg199
(lp618
g3
(g213
g5
NtRp619
(dp620
g203
Nsg206
I01
sg193
g303
sg199
(lp621
g196
asg201
(lp622
sbag564
asg201
(lp623
sbasg201
(lp624
sbag582
asg201
(lp625
sbasg568
(lp626
g3
(g213
g5
NtRp627
(dp628
g203
Nsg206
I01
sg193
g262
sg199
(lp629
g3
(g213
g5
NtRp630
(dp631
g203
Nsg206
I01
sg193
g266
sg199
(lp632
g196
asg201
(lp633
sbag3
(g213
g5
NtRp634
(dp635
g203
Nsg206
I01
sg193
g440
sg199
(lp636
g3
(g213
g5
NtRp637
(dp638
g203
Nsg206
I01
sg193
g444
sg199
(lp639
g3
(g213
g5
NtRp640
(dp641
g203
Nsg206
I01
sg193
g303
sg199
(lp642
g196
asg201
(lp643
sbag568
asg201
(lp644
sbasg201
(lp645
sbag582
asg201
(lp646
sbasg572
(lp647
g3
(g213
g5
NtRp648
(dp649
g203
Nsg206
I01
sg193
g262
sg199
(lp650
g3
(g213
g5
NtRp651
(dp652
g203
Nsg206
I01
sg193
g266
sg199
(lp653
g196
asg201
(lp654
sbag3
(g213
g5
NtRp655
(dp656
g203
Nsg206
I01
sg193
g440
sg199
(lp657
g3
(g213
g5
NtRp658
(dp659
g203
Nsg206
I01
sg193
g444
sg199
(lp660
g3
(g213
g5
NtRp661
(dp662
g203
Nsg206
I01
sg193
g303
sg199
(lp663
g196
asg201
(lp664
sbag572
asg201
(lp665
sbasg201
(lp666
sbag582
asg201
(lp667
sbasg238
(lp668
g3
(g213
g5
NtRp669
(dp670
g203
Nsg206
I01
sg193
g262
sg199
(lp671
g3
(g213
g5
NtRp672
(dp673
g203
Nsg206
I01
sg193
g266
sg199
(lp674
g196
asg201
(lp675
sbag3
(g213
g5
NtRp676
(dp677
g203
Nsg206
I01
sg193
g440
sg199
(lp678
g3
(g213
g5
NtRp679
(dp680
g203
Nsg206
I01
sg193
g444
sg199
(lp681
g3
(g213
g5
NtRp682
(dp683
g203
Nsg206
I01
sg193
g303
sg199
(lp684
g196
asg201
(lp685
sbag238
asg201
(lp686
sbasg201
(lp687
sbag291
asg201
(lp688
sbasg3
(g213
g5
NtRp689
(dp690
g203
Nsg206
I01
sg193
g216
sg199
(lp691
g3
(g213
g5
NtRp692
(dp693
g203
Nsg206
I00
sg193
g220
sg199
(lp694
g3
(g195
g5
NtRp695
(dp696
g193
g198
sg199
(lp697
sg201
(lp698
sg203
I17
sg204
g25
sg206
I01
sbag561
asg201
(lp699
sbasg201
(lp700
sb(lp701
g3
(g213
g5
NtRp702
(dp703
g203
Nsg206
I01
sg193
g262
sg199
(lp704
g585
ag3
(g213
g5
NtRp705
(dp706
g203
Nsg206
I01
sg193
g279
sg199
(lp707
g585
ag3
(g195
g5
NtRp708
(dp709
g193
g198
sg199
(lp710
sg201
(lp711
sg203
I5
sg204
g216
sg206
I01
sbag3
(g213
g5
NtRp712
(dp713
g203
Nsg206
I00
sg193
g199
sg199
(lp714
g585
ag579
asg201
(lp715
sbasg201
(lp716
sbag588
asg201
(lp717
sbasg3
(g213
g5
NtRp718
(dp719
g203
Nsg206
I01
sg193
g317
sg199
(lp720
g689
asg201
(lp721
sb(lp722
g3
(g213
g5
NtRp723
(dp724
g203
Nsg206
I01
sg193
g262
sg199
(lp725
g588
ag3
(g213
g5
NtRp726
(dp727
g203
Nsg206
I01
sg193
g279
sg199
(lp728
g588
ag3
(g195
g5
NtRp729
(dp730
g193
g198
sg199
(lp731
sg201
(lp732
sg203
I3
sg204
g317
sg206
I01
sbag3
(g213
g5
NtRp733
(dp734
g203
Nsg206
I00
sg193
g199
sg199
(lp735
g588
ag702
asg201
(lp736
sbasg201
(lp737
sbag271
asg201
(lp738
sbasg3
(g213
g5
NtRp739
(dp740
g203
Nsg206
I00
sg193
g228
sg199
(lp741
g3
(g195
g5
NtRp742
(dp743
g193
g198
sg199
(lp744
sg201
(lp745
sg203
Nsg204
I1
sg206
I01
sbag3
(g195
g5
NtRp746
(dp747
g193
g198
sg199
(lp748
sg201
(lp749
sg203
Nsg204
I10
sg206
I01
sbag3
(g195
g5
NtRp750
(dp751
g193
g198
sg199
(lp752
sg201
(lp753
sg203
Nsg204
I1
sg206
I01
sbasg201
(lp754
(g243
g244
tp755
asb(lp756
g3
(g213
g5
NtRp757
(dp758
g203
Nsg206
I01
sg193
g262
sg199
(lp759
g3
(g213
g5
NtRp760
(dp761
g203
Nsg206
I01
sg193
g266
sg199
(lp762
g3
(g213
g5
NtRp763
(dp764
g203
Nsg206
I01
sg193
g266
sg199
(lp765
g3
(g213
g5
NtRp766
(dp767
g203
Nsg206
I01
sg193
g266
sg199
(lp768
g271
asg201
(lp769
sbasg201
(lp770
sbasg201
(lp771
sbag3
(g213
g5
NtRp772
(dp773
g203
Nsg206
I00
sg193
g228
sg199
(lp774
g742
ag746
ag750
asg201
(lp775
(lp776
g300
ag3
(g213
g5
NtRp777
(dp778
g203
Nsg206
I01
sg193
g303
sg199
(lp779
g760
asg201
(lp780
sbaa(g243
g306
tp781
asbag763
asg201
(lp782
sbasg742
(lp783
g3
(g213
g5
NtRp784
(dp785
g203
Nsg206
I01
sg193
g262
sg199
(lp786
g3
(g213
g5
NtRp787
(dp788
g203
Nsg206
I01
sg193
g266
sg199
(lp789
g196
asg201
(lp790
sbag3
(g213
g5
NtRp791
(dp792
g203
Nsg206
I01
sg193
g440
sg199
(lp793
g3
(g213
g5
NtRp794
(dp795
g203
Nsg206
I01
sg193
g444
sg199
(lp796
g3
(g213
g5
NtRp797
(dp798
g203
Nsg206
I01
sg193
g303
sg199
(lp799
g196
asg201
(lp800
sbag742
asg201
(lp801
sbasg201
(lp802
sbag760
asg201
(lp803
sbasg3
(g213
g5
NtRp804
(dp805
g203
I6
sg206
I00
sg193
S'dict'
p806
sg199
(lp807
sg201
(lp808
(lp809
g23
ag532
aa(lp810
g31
ag3
(g213
g5
NtRp811
(dp812
g203
Nsg206
I01
sg193
g317
sg199
(lp813
g3
(g213
g5
NtRp814
(dp815
g203
Nsg206
I01
sg193
g216
sg199
(lp816
g3
(g213
g5
NtRp817
(dp818
g203
Nsg206
I00
sg193
g220
sg199
(lp819
g3
(g195
g5
NtRp820
(dp821
g193
g198
sg199
(lp822
sg201
(lp823
sg203
I16
sg204
g31
sg206
I01
sbag739
asg201
(lp824
sbasg201
(lp825
sbasg201
(lp826
sbaa(lp827
g25
ag718
aa(lp828
g29
ag409
aa(lp829
S'n_jobs'
p830
ag3
(g195
g5
NtRp831
(dp832
g193
g198
sg199
(lp833
sg201
(lp834
sg203
Nsg204
I4
sg206
I01
sbaa(lp835
g27
ag315
aasb(lp836
g3
(g213
g5
NtRp837
(dp838
g203
Nsg206
I01
sg193
g262
sg199
(lp839
g271
ag3
(g213
g5
NtRp840
(dp841
g203
Nsg206
I01
sg193
g279
sg199
(lp842
g271
ag3
(g195
g5
NtRp843
(dp844
g193
g198
sg199
(lp845
sg201
(lp846
sg203
I4
sg204
g806
sg206
I01
sbasg201
(lp847
(lp848
g23
ag3
(g213
g5
NtRp849
(dp850
g203
Nsg206
I00
sg193
g199
sg199
(lp851
g271
ag545
asg201
(lp852
sbaa(lp853
g31
ag3
(g213
g5
NtRp854
(dp855
g203
Nsg206
I00
sg193
g199
sg199
(lp856
g271
ag3
(g213
g5
NtRp857
(dp858
g203
Nsg206
I01
sg193
g262
sg199
(lp859
g766
ag3
(g213
g5
NtRp860
(dp861
g203
Nsg206
I01
sg193
g279
sg199
(lp862
g766
ag3
(g195
g5
NtRp863
(dp864
g193
g198
sg199
(lp865
sg201
(lp866
sg203
I3
sg204
g317
sg206
I01
sbag3
(g213
g5
NtRp867
(dp868
g203
Nsg206
I00
sg193
g199
sg199
(lp869
g766
ag3
(g213
g5
NtRp870
(dp871
g203
Nsg206
I01
sg193
g262
sg199
(lp872
g763
ag3
(g213
g5
NtRp873
(dp874
g203
Nsg206
I01
sg193
g279
sg199
(lp875
g763
ag3
(g195
g5
NtRp876
(dp877
g193
g198
sg199
(lp878
sg201
(lp879
sg203
I5
sg204
g216
sg206
I01
sbag3
(g213
g5
NtRp880
(dp881
g203
Nsg206
I00
sg193
g199
sg199
(lp882
g763
ag757
asg201
(lp883
sbasg201
(lp884
sbag766
asg201
(lp885
sbasg201
(lp886
sbasg201
(lp887
sbag271
asg201
(lp888
sbasg201
(lp889
sbaa(lp890
g25
ag3
(g213
g5
NtRp891
(dp892
g203
Nsg206
I00
sg193
g199
sg199
(lp893
g271
ag723
asg201
(lp894
sbaa(lp895
g29
ag3
(g213
g5
NtRp896
(dp897
g203
Nsg206
I00
sg193
g199
sg199
(lp898
g271
ag414
asg201
(lp899
sbaa(lp900
g830
ag3
(g213
g5
NtRp901
(dp902
g203
Nsg206
I00
sg193
g199
sg199
(lp903
g271
ag3
(g213
g5
NtRp904
(dp905
g203
Nsg206
I01
sg193
g262
sg199
(lp906
g3
(g213
g5
NtRp907
(dp908
g203
Nsg206
I01
sg193
g266
sg199
(lp909
g196
asg201
(lp910
sbag3
(g213
g5
NtRp911
(dp912
g203
Nsg206
I01
sg193
g440
sg199
(lp913
g3
(g213
g5
NtRp914
(dp915
g203
Nsg206
I01
sg193
g444
sg199
(lp916
g3
(g213
g5
NtRp917
(dp918
g203
Nsg206
I01
sg193
g303
sg199
(lp919
g196
asg201
(lp920
sbag831
asg201
(lp921
sbasg201
(lp922
sbag271
asg201
(lp923
sbasg201
(lp924
sbaa(lp925
g27
ag3
(g213
g5
NtRp926
(dp927
g203
Nsg206
I00
sg193
g199
sg199
(lp928
g271
ag321
asg201
(lp929
sbaasbag196
asg201
(lp930
sbasg746
(lp931
g3
(g213
g5
NtRp932
(dp933
g203
Nsg206
I01
sg193
g262
sg199
(lp934
g3
(g213
g5
NtRp935
(dp936
g203
Nsg206
I01
sg193
g266
sg199
(lp937
g196
asg201
(lp938
sbag3
(g213
g5
NtRp939
(dp940
g203
Nsg206
I01
sg193
g440
sg199
(lp941
g3
(g213
g5
NtRp942
(dp943
g203
Nsg206
I01
sg193
g444
sg199
(lp944
g3
(g213
g5
NtRp945
(dp946
g203
Nsg206
I01
sg193
g303
sg199
(lp947
g196
asg201
(lp948
sbag746
asg201
(lp949
sbasg201
(lp950
sbag760
asg201
(lp951
sbasg750
(lp952
g3
(g213
g5
NtRp953
(dp954
g203
Nsg206
I01
sg193
g262
sg199
(lp955
g3
(g213
g5
NtRp956
(dp957
g203
Nsg206
I01
sg193
g266
sg199
(lp958
g196
asg201
(lp959
sbag3
(g213
g5
NtRp960
(dp961
g203
Nsg206
I01
sg193
g440
sg199
(lp962
g3
(g213
g5
NtRp963
(dp964
g203
Nsg206
I01
sg193
g444
sg199
(lp965
g3
(g213
g5
NtRp966
(dp967
g203
Nsg206
I01
sg193
g303
sg199
(lp968
g196
asg201
(lp969
sbag750
asg201
(lp970
sbasg201
(lp971
sbag760
asg201
(lp972
sbasg814
(lp973
g870
asg811
(lp974
g857
asg831
(lp975
g904
asg347
(lp976
g388
asg350
(lp977
g3
(g213
g5
NtRp978
(dp979
g203
Nsg206
I01
sg193
g262
sg199
(lp980
g3
(g213
g5
NtRp981
(dp982
g203
Nsg206
I01
sg193
g266
sg199
(lp983
g196
asg201
(lp984
sbag3
(g213
g5
NtRp985
(dp986
g203
Nsg206
I01
sg193
g440
sg199
(lp987
g3
(g213
g5
NtRp988
(dp989
g203
Nsg206
I01
sg193
g444
sg199
(lp990
g3
(g213
g5
NtRp991
(dp992
g203
Nsg206
I01
sg193
g303
sg199
(lp993
g196
asg201
(lp994
sbag350
asg201
(lp995
sbasg201
(lp996
sbag391
asg201
(lp997
sbasg234
(lp998
g3
(g213
g5
NtRp999
(dp1000
g203
Nsg206
I01
sg193
g262
sg199
(lp1001
g3
(g213
g5
NtRp1002
(dp1003
g203
Nsg206
I01
sg193
g266
sg199
(lp1004
g196
asg201
(lp1005
sbag3
(g213
g5
NtRp1006
(dp1007
g203
Nsg206
I01
sg193
g440
sg199
(lp1008
g3
(g213
g5
NtRp1009
(dp1010
g203
Nsg206
I01
sg193
g444
sg199
(lp1011
g3
(g213
g5
NtRp1012
(dp1013
g203
Nsg206
I01
sg193
g303
sg199
(lp1014
g196
asg201
(lp1015
sbag234
asg201
(lp1016
sbasg201
(lp1017
sbag291
asg201
(lp1018
sbasg354
(lp1019
g3
(g213
g5
NtRp1020
(dp1021
g203
Nsg206
I01
sg193
g262
sg199
(lp1022
g3
(g213
g5
NtRp1023
(dp1024
g203
Nsg206
I01
sg193
g266
sg199
(lp1025
g196
asg201
(lp1026
sbag3
(g213
g5
NtRp1027
(dp1028
g203
Nsg206
I01
sg193
g440
sg199
(lp1029
g3
(g213
g5
NtRp1030
(dp1031
g203
Nsg206
I01
sg193
g444
sg199
(lp1032
g3
(g213
g5
NtRp1033
(dp1034
g203
Nsg206
I01
sg193
g303
sg199
(lp1035
g196
asg201
(lp1036
sbag354
asg201
(lp1037
sbasg201
(lp1038
sbag391
asg201
(lp1039
sbasg226
(lp1040
g288
asg358
(lp1041
g3
(g213
g5
NtRp1042
(dp1043
g203
Nsg206
I01
sg193
g262
sg199
(lp1044
g3
(g213
g5
NtRp1045
(dp1046
g203
Nsg206
I01
sg193
g266
sg199
(lp1047
g196
asg201
(lp1048
sbag3
(g213
g5
NtRp1049
(dp1050
g203
Nsg206
I01
sg193
g440
sg199
(lp1051
g3
(g213
g5
NtRp1052
(dp1053
g203
Nsg206
I01
sg193
g444
sg199
(lp1054
g3
(g213
g5
NtRp1055
(dp1056
g203
Nsg206
I01
sg193
g303
sg199
(lp1057
g196
asg201
(lp1058
sbag358
asg201
(lp1059
sbasg201
(lp1060
sbag391
asg201
(lp1061
sbassS'expr'
p1062
g804
sS'idxs_memo'
p1063
(dp1064
g214
g264
sg315
g268
sg337
g370
sg409
g373
sg230
g434
sg453
g471
sg457
g494
sg461
g515
sg532
g474
sg561
g582
sg564
g609
sg568
g630
sg572
g651
sg238
g672
sg689
g585
sg718
g588
sg739
g760
sg742
g787
sg804
g271
sg746
g935
sg750
g956
sg814
g763
sg811
g766
sg831
g907
sg347
g391
sg350
g981
sg234
g1002
sg354
g1023
sg226
g291
sg358
g1045
ssS'dfs_nodes'
p1065
(lp1066
g538
ag457
ag461
ag453
ag535
ag532
ag820
ag742
ag746
ag750
ag739
ag817
ag814
ag811
ag695
ag564
ag568
ag572
ag561
ag692
ag689
ag718
ag343
ag350
ag354
ag358
ag347
ag340
ag337
ag409
ag831
ag222
ag230
ag234
ag238
ag226
ag218
ag214
ag315
ag804
asS'params'
p1067
(dp1068
g23
g453
sg25
g561
sg27
g226
sg29
g347
sg31
g739
ssS'v_expr'
p1069
g837
sS'expr_idxs'
p1070
g196
sbsg1062
g804
sS'pass_expr_memo_ctrl'
p1071
I00
sg243
g249
sg44
Nsg1067
(dp1072
g23
g453
sg25
g561
sg27
g226
sg29
g347
sg31
g739
ssS's_idxs_vals'
p1073
g3
(g213
g5
NtRp1074
(dp1075
g203
Nsg206
I01
sg193
g199
sg199
(lp1076
g3
(g213
g5
NtRp1077
(dp1078
g203
I5
sg206
I00
sg193
g806
sg199
(lp1079
sg201
(lp1080
(lp1081
g23
ag471
aa(lp1082
g31
ag760
aa(lp1083
g25
ag582
aa(lp1084
g29
ag391
aa(lp1085
g27
ag291
aasbag3
(g213
g5
NtRp1086
(dp1087
g203
I5
sg206
I00
sg193
g806
sg199
(lp1088
sg201
(lp1089
(lp1090
g23
ag479
aa(lp1091
g31
ag772
aa(lp1092
g25
ag594
aa(lp1093
g29
ag395
aa(lp1094
g27
ag295
aasbasg201
(lp1095
sbsS'loss_target'
p1096
NsS'installed_rng'
p1097
I01
sS'fn'
p1098
cHPOlib.cv
main
p1099
sbs.