(dp1
S'trials'
p2
ccopy_reg
_reconstructor
p3
(chyperopt.base
Trials
p4
c__builtin__
object
p5
NtRp6
(dp7
S'attachments'
p8
(dp9
sS'_trials'
p10
(lp11
(dp12
S'refresh_time'
p13
cdatetime
datetime
p14
(S'\x07\xde\x05\r\x0b\x016\x08\xb6x'
tRp15
sS'book_time'
p16
g14
(S'\x07\xde\x05\r\x0b\x01\x12\x08\xb2\x90'
tRp17
sS'misc'
p18
(dp19
S'tid'
p20
I0
sS'idxs'
p21
(dp22
S'max_features'
p23
(lp24
I0
asS'min_samples_split'
p25
(lp26
I0
asS'seed'
p27
(lp28
I0
asS'n_estimators'
p29
(lp30
I0
asS'min_samples_leaf'
p31
(lp32
I0
assS'cmd'
p33
(S'domain_attachment'
p34
S'FMinIter_Domain'
p35
tp36
sS'vals'
p37
(dp38
g23
(lp39
F0.4382813600307629
asg25
(lp40
F5
asg27
(lp41
F57
asg29
(lp42
F57
asg31
(lp43
F4
assS'workdir'
p44
NssS'state'
p45
I2
sg20
I0
sS'exp_key'
p46
NsS'version'
p47
I0
sS'result'
p48
(dp49
S'status'
p50
S'ok'
p51
sS'loss'
p52
F0.28451100000000001
ssS'owner'
p53
NsS'spec'
p54
Nsa(dp55
g13
g14
(S'\x07\xde\x05\r\x0b\x02\n\x01\xc5 '
tRp56
sg16
g14
(S'\x07\xde\x05\r\x0b\x016\x08\xd5\xb8'
tRp57
sg18
(dp58
g20
I1
sg21
(dp59
g23
(lp60
I1
asg25
(lp61
I1
asg27
(lp62
I1
asg29
(lp63
I1
asg31
(lp64
I1
assg33
(g34
g35
tp65
sg37
(dp66
g23
(lp67
F0.6587729687010927
asg25
(lp68
F10
asg27
(lp69
F18
asg29
(lp70
F9
asg31
(lp71
F9
assg44
Nssg45
I2
sg20
I1
sg46
Nsg47
I0
sg48
(dp72
g50
g51
sg52
F0.307784
ssg53
Nsg54
Nsa(dp73
g13
g14
(S'\x07\xde\x05\r\x0b\x02!\x0c\xe8\xb0'
tRp74
sg16
g14
(S'\x07\xde\x05\r\x0b\x02\n\x01\xe4`'
tRp75
sg18
(dp76
g20
I2
sg21
(dp77
g23
(lp78
I2
asg25
(lp79
I2
asg27
(lp80
I2
asg29
(lp81
I2
asg31
(lp82
I2
assg33
(g34
g35
tp83
sg37
(dp84
g23
(lp85
F0.70675063104824554
asg25
(lp86
F6
asg27
(lp87
F66
asg29
(lp88
F30
asg31
(lp89
F6
assg44
Nssg45
I2
sg20
I2
sg46
Nsg47
I0
sg48
(dp90
g50
g51
sg52
F0.29969600000000002
ssg53
Nsg54
Nsa(dp91
g13
g14
(S'\x07\xde\x05\r\x0b\x03\x08\x02\xf9\xb8'
tRp92
sg16
g14
(S'\x07\xde\x05\r\x0b\x02!\r\x04\x08'
tRp93
sg18
(dp94
g20
I3
sg21
(dp95
g23
(lp96
I3
asg25
(lp97
I3
asg27
(lp98
I3
asg29
(lp99
I3
asg31
(lp100
I3
assg33
(g34
g35
tp101
sg37
(dp102
g23
(lp103
F0.8623756153173634
asg25
(lp104
F5
asg27
(lp105
F50
asg29
(lp106
F45
asg31
(lp107
F4
assg44
Nssg45
I2
sg20
I3
sg46
Nsg47
I0
sg48
(dp108
g50
g51
sg52
F0.29191699999999998
ssg53
Nsg54
Nsa(dp109
g13
g14
(S'\x07\xde\x05\r\x0b\x03:\rqh'
tRp110
sg16
g14
(S'\x07\xde\x05\r\x0b\x03\x08\x03\x15\x10'
tRp111
sg18
(dp112
g20
I4
sg21
(dp113
g23
(lp114
I4
asg25
(lp115
I4
asg27
(lp116
I4
asg29
(lp117
I4
asg31
(lp118
I4
assg33
(g34
g35
tp119
sg37
(dp120
g23
(lp121
F0.78286487145630235
asg25
(lp122
F5
asg27
(lp123
F59
asg29
(lp124
F81
asg31
(lp125
F5
assg44
Nssg45
I2
sg20
I4
sg46
Nsg47
I0
sg48
(dp126
g50
g51
sg52
F0.29455300000000001
ssg53
Nsg54
Nsa(dp127
g13
g14
(S"\x07\xde\x05\r\x0b\x047\x0b'x"
tRp128
sg16
g14
(S'\x07\xde\x05\r\x0b\x03:\r\x8c\xc0'
tRp129
sg18
(dp130
g20
I5
sg21
(dp131
g23
(lp132
I5
asg25
(lp133
I5
asg27
(lp134
I5
asg29
(lp135
I5
asg31
(lp136
I5
assg33
(g34
g35
tp137
sg37
(dp138
g23
(lp139
F0.85320589125639534
asg25
(lp140
F2
asg27
(lp141
F19
asg29
(lp142
F93
asg31
(lp143
F8
assg44
Nssg45
I2
sg20
I5
sg46
Nsg47
I0
sg48
(dp144
g50
g51
sg52
F0.301487
ssg53
Nsg54
Nsa(dp145
g13
g14
(S'\x07\xde\x05\r\x0b\x059\r\xfa '
tRp146
sg16
g14
(S'\x07\xde\x05\r\x0b\x047\x0bF\xb8'
tRp147
sg18
(dp148
g20
I6
sg21
(dp149
g23
(lp150
I6
asg25
(lp151
I6
asg27
(lp152
I6
asg29
(lp153
I6
asg31
(lp154
I6
assg33
(g34
g35
tp155
sg37
(dp156
g23
(lp157
F0.76497628633825521
asg25
(lp158
F7
asg27
(lp159
F25
asg29
(lp160
F97
asg31
(lp161
F3
assg44
Nssg45
I2
sg20
I6
sg46
Nsg47
I0
sg48
(dp162
g50
g51
sg52
F0.28772900000000001
ssg53
Nsg54
Nsa(dp163
g13
g14
(S'\x07\xde\x05\r\x0b\x06\x15\tC\x18'
tRp164
sg16
g14
(S'\x07\xde\x05\r\x0b\x059\x0e\x1dH'
tRp165
sg18
(dp166
g20
I7
sg21
(dp167
g23
(lp168
I7
asg25
(lp169
I7
asg27
(lp170
I7
asg29
(lp171
I7
asg31
(lp172
I7
assg33
(g34
g35
tp173
sg37
(dp174
g23
(lp175
F0.8511086143324692
asg25
(lp176
F7
asg27
(lp177
F65
asg29
(lp178
F28
asg31
(lp179
F8
assg44
Nssg45
I2
sg20
I7
sg46
Nsg47
I0
sg48
(dp180
g50
g51
sg52
F0.30682900000000002
ssg53
Nsg54
Nsa(dp181
g13
g14
(S'\x07\xde\x05\r\x0b\x06%\x05\xa98'
tRp182
sg16
g14
(S'\x07\xde\x05\r\x0b\x06\x15\t^p'
tRp183
sg18
(dp184
g20
I8
sg21
(dp185
g23
(lp186
I8
asg25
(lp187
I8
asg27
(lp188
I8
asg29
(lp189
I8
asg31
(lp190
I8
assg33
(g34
g35
tp191
sg37
(dp192
g23
(lp193
F0.71702684492711954
asg25
(lp194
F4
asg27
(lp195
F28
asg29
(lp196
F8
asg31
(lp197
F3
assg44
Nssg45
I2
sg20
I8
sg46
Nsg47
I0
sg48
(dp198
g50
g51
sg52
F0.29154999999999998
ssg53
Nsg54
Nsa(dp199
g13
g14
(S'\x07\xde\x05\r\x0b\x07\x05\x04\xcex'
tRp200
sg16
g14
(S'\x07\xde\x05\r\x0b\x06%\x05\xc8x'
tRp201
sg18
(dp202
g20
I9
sg21
(dp203
g23
(lp204
I9
asg25
(lp205
I9
asg27
(lp206
I9
asg29
(lp207
I9
asg31
(lp208
I9
assg33
(g34
g35
tp209
sg37
(dp210
g23
(lp211
F0.13627146232473852
asg25
(lp212
F2
asg27
(lp213
F7
asg29
(lp214
F87
asg31
(lp215
F7
assg44
Nssg45
I2
sg20
I9
sg46
Nsg47
I0
sg48
(dp216
g50
g51
sg52
F0.31923299999999999
ssg53
Nsg54
Nsa(dp217
g13
g14
(S'\x07\xde\x05\r\x0b\x07\x1f\r\xd6\xf8'
tRp218
sg16
g14
(S'\x07\xde\x05\r\x0b\x07\x05\x04\xf1\xa0'
tRp219
sg18
(dp220
g20
I10
sg21
(dp221
g23
(lp222
I10
asg25
(lp223
I10
asg27
(lp224
I10
asg29
(lp225
I10
asg31
(lp226
I10
assg33
(g34
g35
tp227
sg37
(dp228
g23
(lp229
F0.53938579816008558
asg25
(lp230
F5
asg27
(lp231
F5
asg29
(lp232
F41
asg31
(lp233
F9
assg44
Nssg45
I2
sg20
I10
sg46
Nsg47
I0
sg48
(dp234
g50
g51
sg52
F0.30316199999999999
ssg53
Nsg54
Nsa(dp235
g13
g14
(S'\x07\xde\x05\r\x0b\x08\x00\x04\x0b('
tRp236
sg16
g14
(S'\x07\xde\x05\r\x0b\x07\x1f\r\xf2P'
tRp237
sg18
(dp238
g20
I11
sg21
(dp239
g23
(lp240
I11
asg25
(lp241
I11
asg27
(lp242
I11
asg29
(lp243
I11
asg31
(lp244
I11
assg33
(g34
g35
tp245
sg37
(dp246
g23
(lp247
F0.64739339529210183
asg25
(lp248
F4
asg27
(lp249
F93
asg29
(lp250
F54
asg31
(lp251
F8
assg44
Nssg45
I2
sg20
I11
sg46
Nsg47
I0
sg48
(dp252
g50
g51
sg52
F0.30254700000000001
ssg53
Nsg54
Nsa(dp253
g13
g14
(S'\x07\xde\x05\r\x0b\x08\x1d\x04\xc2\xc0'
tRp254
sg16
g14
(S'\x07\xde\x05\r\x0b\x08\x00\x04*h'
tRp255
sg18
(dp256
g20
I12
sg21
(dp257
g23
(lp258
I12
asg25
(lp259
I12
asg27
(lp260
I12
asg29
(lp261
I12
asg31
(lp262
I12
assg33
(g34
g35
tp263
sg37
(dp264
g23
(lp265
F0.65900988720953557
asg25
(lp266
F3
asg27
(lp267
F8
asg29
(lp268
F38
asg31
(lp269
F5
assg44
Nssg45
I2
sg20
I12
sg46
Nsg47
I0
sg48
(dp270
g50
g51
sg52
F0.29106199999999999
ssg53
Nsg54
Nsa(dp271
g13
g14
(S'\x07\xde\x05\r\x0b\t\x19\x06\x03\x10'
tRp272
sg16
g14
(S'\x07\xde\x05\r\x0b\x08\x1d\x04\xe2\x00'
tRp273
sg18
(dp274
g20
I13
sg21
(dp275
g23
(lp276
I13
asg25
(lp277
I13
asg27
(lp278
I13
asg29
(lp279
I13
asg31
(lp280
I13
assg33
(g34
g35
tp281
sg37
(dp282
g23
(lp283
F0.66863862188150958
asg25
(lp284
F3
asg27
(lp285
F68
asg29
(lp286
F96
asg31
(lp287
F6
assg44
Nssg45
I2
sg20
I13
sg46
Nsg47
I0
sg48
(dp288
g50
g51
sg52
F0.29611900000000002
ssg53
Nsg54
Nsa(dp289
g13
g14
(S'\x07\xde\x05\r\x0b\t/\x07\x14\x80'
tRp290
sg16
g14
(S'\x07\xde\x05\r\x0b\t\x19\x06&8'
tRp291
sg18
(dp292
g20
I14
sg21
(dp293
g23
(lp294
I14
asg25
(lp295
I14
asg27
(lp296
I14
asg29
(lp297
I14
asg31
(lp298
I14
assg33
(g34
g35
tp299
sg37
(dp300
g23
(lp301
F0.45647882953460495
asg25
(lp302
F4
asg27
(lp303
F19
asg29
(lp304
F31
asg31
(lp305
F10
assg44
Nssg45
I2
sg20
I14
sg46
Nsg47
I0
sg48
(dp306
g50
g51
sg52
F0.30834099999999998
ssg53
Nsg54
Nsa(dp307
g13
g14
(S'\x07\xde\x05\r\x0b\n\x1c\x0e\xb1\xb8'
tRp308
sg16
g14
(S'\x07\xde\x05\r\x0b\t/\x073\xc0'
tRp309
sg18
(dp310
g20
I15
sg21
(dp311
g23
(lp312
I15
asg25
(lp313
I15
asg27
(lp314
I15
asg29
(lp315
I15
asg31
(lp316
I15
assg33
(g34
g35
tp317
sg37
(dp318
g23
(lp319
F0.95020847604432379
asg25
(lp320
F9
asg27
(lp321
F74
asg29
(lp322
F52
asg31
(lp323
F5
assg44
Nssg45
I2
sg20
I15
sg46
Nsg47
I0
sg48
(dp324
g50
g51
sg52
F0.298572
ssg53
Nsg54
Nsa(dp325
g13
g14
(S'\x07\xde\x05\r\x0b\x0b\x04\x0e0\xd0'
tRp326
sg16
g14
(S'\x07\xde\x05\r\x0b\n\x1c\x0e\xd4\xe0'
tRp327
sg18
(dp328
g20
I16
sg21
(dp329
g23
(lp330
I16
asg25
(lp331
I16
asg27
(lp332
I16
asg29
(lp333
I16
asg31
(lp334
I16
assg33
(g34
g35
tp335
sg37
(dp336
g23
(lp337
F0.51588144780396283
asg25
(lp338
F8
asg27
(lp339
F90
asg29
(lp340
F73
asg31
(lp341
F8
assg44
Nssg45
I2
sg20
I16
sg46
Nsg47
I0
sg48
(dp342
g50
g51
sg52
F0.29981000000000002
ssg53
Nsg54
Nsa(dp343
g13
g14
(S'\x07\xde\x05\r\x0b\x0c\x06\x02B '
tRp344
sg16
g14
(S'\x07\xde\x05\r\x0b\x0b\x04\x0eP\x10'
tRp345
sg18
(dp346
g20
I17
sg21
(dp347
g23
(lp348
I17
asg25
(lp349
I17
asg27
(lp350
I17
asg29
(lp351
I17
asg31
(lp352
I17
assg33
(g34
g35
tp353
sg37
(dp354
g23
(lp355
F0.93769566497828749
asg25
(lp356
F5
asg27
(lp357
F3
asg29
(lp358
F77
asg31
(lp359
F2
assg44
Nssg45
I2
sg20
I17
sg46
Nsg47
I0
sg48
(dp360
g50
g51
sg52
F0.28733599999999998
ssg53
Nsg54
Nsa(dp361
g13
g14
(S'\x07\xde\x05\r\x0b\x0c\x15\r\xaf\xe8'
tRp362
sg16
g14
(S'\x07\xde\x05\r\x0b\x0c\x06\x02eH'
tRp363
sg18
(dp364
g20
I18
sg21
(dp365
g23
(lp366
I18
asg25
(lp367
I18
asg27
(lp368
I18
asg29
(lp369
I18
asg31
(lp370
I18
assg33
(g34
g35
tp371
sg37
(dp372
g23
(lp373
F0.5017679851846798
asg25
(lp374
F9
asg27
(lp375
F88
asg29
(lp376
F11
asg31
(lp377
F4
assg44
Nssg45
I2
sg20
I18
sg46
Nsg47
I0
sg48
(dp378
g50
g51
sg52
F0.29045799999999999
ssg53
Nsg54
Nsa(dp379
g13
g14
(S'\x07\xde\x05\r\x0b\x0c3\x02\xdax'
tRp380
sg16
g14
(S'\x07\xde\x05\r\x0b\x0c\x15\r\xd3\x10'
tRp381
sg18
(dp382
g20
I19
sg21
(dp383
g23
(lp384
I19
asg25
(lp385
I19
asg27
(lp386
I19
asg29
(lp387
I19
asg31
(lp388
I19
assg33
(g34
g35
tp389
sg37
(dp390
g23
(lp391
F0.89244916190043588
asg25
(lp392
F7
asg27
(lp393
F90
asg29
(lp394
F40
asg31
(lp395
F7
assg44
Nssg45
I2
sg20
I19
sg46
Nsg47
I0
sg48
(dp396
g50
g51
sg52
F0.30520599999999998
ssg53
Nsg54
Nsa(dp397
g13
g14
(S'\x07\xde\x05\r\x0b\r"\x07\xbcx'
tRp398
sg16
g14
(S'\x07\xde\x05\r\x0b\x0c3\x02\xfd\xa0'
tRp399
sg18
(dp400
g20
I20
sg21
(dp401
g23
(lp402
I20
asg25
(lp403
I20
asg27
(lp404
I20
asg29
(lp405
I20
asg31
(lp406
I20
assg33
(g34
g35
tp407
sg37
(dp408
g23
(lp409
F0.40322685497136723
asg25
(lp410
F6
asg27
(lp411
F99
asg29
(lp412
F87
asg31
(lp413
F3
assg44
Nssg45
I2
sg20
I20
sg46
Nsg47
I0
sg48
(dp414
g50
g51
sg52
F0.287217
ssg53
Nsg54
Nsa(dp415
g13
g14
(S'\x07\xde\x05\r\x0b\x0e\x1f\x00\xcf\x08'
tRp416
sg16
g14
(S'\x07\xde\x05\r\x0b\r"\x07\xdf\xa0'
tRp417
sg18
(dp418
g20
I21
sg21
(dp419
g23
(lp420
I21
asg25
(lp421
I21
asg27
(lp422
I21
asg29
(lp423
I21
asg31
(lp424
I21
assg33
(g34
g35
tp425
sg37
(dp426
g23
(lp427
F0.99751895320628681
asg25
(lp428
F2
asg27
(lp429
F61
asg29
(lp430
F74
asg31
(lp431
F4
assg44
Nssg45
I2
sg20
I21
sg46
Nsg47
I0
sg48
(dp432
g50
g51
sg52
F0.29499799999999998
ssg53
Nsg54
Nsa(dp433
g13
g14
(S'\x07\xde\x05\r\x0b\x0f\x0e\x02\x0bp'
tRp434
sg16
g14
(S'\x07\xde\x05\r\x0b\x0e\x1f\x00\xf20'
tRp435
sg18
(dp436
g20
I22
sg21
(dp437
g23
(lp438
I22
asg25
(lp439
I22
asg27
(lp440
I22
asg29
(lp441
I22
asg31
(lp442
I22
assg33
(g34
g35
tp443
sg37
(dp444
g23
(lp445
F0.71686683481878255
asg25
(lp446
F2
asg27
(lp447
F2
asg29
(lp448
F50
asg31
(lp449
F1
assg44
Nssg45
I2
sg20
I22
sg46
Nsg47
I0
sg48
(dp450
g50
g51
sg52
F0.28053
ssg53
Nsg54
Nsa(dp451
g13
g14
(S'\x07\xde\x05\r\x0b\x0f7\t\xf2\xe0'
tRp452
sg16
g14
(S'\x07\xde\x05\r\x0b\x0f\x0e\x022\x80'
tRp453
sg18
(dp454
g20
I23
sg21
(dp455
g23
(lp456
I23
asg25
(lp457
I23
asg27
(lp458
I23
asg29
(lp459
I23
asg31
(lp460
I23
assg33
(g34
g35
tp461
sg37
(dp462
g23
(lp463
F0.22720710031736716
asg25
(lp464
F6
asg27
(lp465
F33
asg29
(lp466
F89
asg31
(lp467
F2
assg44
Nssg45
I2
sg20
I23
sg46
Nsg47
I0
sg48
(dp468
g50
g51
sg52
F0.29125099999999998
ssg53
Nsg54
Nsa(dp469
g13
g14
(S'\x07\xde\x05\r\x0b\x10!\x0b\x858'
tRp470
sg16
g14
(S'\x07\xde\x05\r\x0b\x0f7\n\x16\x08'
tRp471
sg18
(dp472
g20
I24
sg21
(dp473
g23
(lp474
I24
asg25
(lp475
I24
asg27
(lp476
I24
asg29
(lp477
I24
asg31
(lp478
I24
assg33
(g34
g35
tp479
sg37
(dp480
g23
(lp481
F0.28451705715485992
asg25
(lp482
F3
asg27
(lp483
F59
asg29
(lp484
F70
asg31
(lp485
F1
assg44
Nssg45
I2
sg20
I24
sg46
Nsg47
I0
sg48
(dp486
g50
g51
sg52
F0.28526600000000002
ssg53
Nsg54
Nsa(dp487
g13
g14
(S'\x07\xde\x05\r\x0b\x11\x11\x02\xf1\xe8'
tRp488
sg16
g14
(S'\x07\xde\x05\r\x0b\x10!\x0b\xa8`'
tRp489
sg18
(dp490
g20
I25
sg21
(dp491
g23
(lp492
I25
asg25
(lp493
I25
asg27
(lp494
I25
asg29
(lp495
I25
asg31
(lp496
I25
assg33
(g34
g35
tp497
sg37
(dp498
g23
(lp499
F0.44941199150258437
asg25
(lp500
F9
asg27
(lp501
F14
asg29
(lp502
F89
asg31
(lp503
F5
assg44
Nssg45
I2
sg20
I25
sg46
Nsg47
I0
sg48
(dp504
g50
g51
sg52
F0.29245399999999999
ssg53
Nsg54
Nsa(dp505
g13
g14
(S'\x07\xde\x05\r\x0b\x11,\x0b\xf2\x98'
tRp506
sg16
g14
(S'\x07\xde\x05\r\x0b\x11\x11\x03\x18\xf8'
tRp507
sg18
(dp508
g20
I26
sg21
(dp509
g23
(lp510
I26
asg25
(lp511
I26
asg27
(lp512
I26
asg29
(lp513
I26
asg31
(lp514
I26
assg33
(g34
g35
tp515
sg37
(dp516
g23
(lp517
F0.53136087371216345
asg25
(lp518
F10
asg27
(lp519
F23
asg29
(lp520
F42
asg31
(lp521
F2
assg44
Nssg45
I2
sg20
I26
sg46
Nsg47
I0
sg48
(dp522
g50
g51
sg52
F0.28719
ssg53
Nsg54
Nsa(dp523
g13
g14
(S'\x07\xde\x05\r\x0b\x12\x1c\r\xcb@'
tRp524
sg16
g14
(S'\x07\xde\x05\r\x0b\x11,\x0c\x15\xc0'
tRp525
sg18
(dp526
g20
I27
sg21
(dp527
g23
(lp528
I27
asg25
(lp529
I27
asg27
(lp530
I27
asg29
(lp531
I27
asg31
(lp532
I27
assg33
(g34
g35
tp533
sg37
(dp534
g23
(lp535
F0.58045610608980325
asg25
(lp536
F8
asg27
(lp537
F80
asg29
(lp538
F90
asg31
(lp539
F9
assg44
Nssg45
I2
sg20
I27
sg46
Nsg47
I0
sg48
(dp540
g50
g51
sg52
F0.301977
ssg53
Nsg54
Nsa(dp541
g13
g14
(S'\x07\xde\x05\r\x0b\x122\tn\x10'
tRp542
sg16
g14
(S'\x07\xde\x05\r\x0b\x12\x1c\r\xeeh'
tRp543
sg18
(dp544
g20
I28
sg21
(dp545
g23
(lp546
I28
asg25
(lp547
I28
asg27
(lp548
I28
asg29
(lp549
I28
asg31
(lp550
I28
assg33
(g34
g35
tp551
sg37
(dp552
g23
(lp553
F0.63761458018838779
asg25
(lp554
F7
asg27
(lp555
F9
asg29
(lp556
F18
asg31
(lp557
F3
assg44
Nssg45
I2
sg20
I28
sg46
Nsg47
I0
sg48
(dp558
g50
g51
sg52
F0.29422700000000002
ssg53
Nsg54
Nsa(dp559
g13
g14
(S'\x07\xde\x05\r\x0b\x13\x0c\rqh'
tRp560
sg16
g14
(S'\x07\xde\x05\r\x0b\x122\t\x95 '
tRp561
sg18
(dp562
g20
I29
sg21
(dp563
g23
(lp564
I29
asg25
(lp565
I29
asg27
(lp566
I29
asg29
(lp567
I29
asg31
(lp568
I29
assg33
(g34
g35
tp569
sg37
(dp570
g23
(lp571
F0.50505650697937188
asg25
(lp572
F9
asg27
(lp573
F15
asg29
(lp574
F27
asg31
(lp575
F7
assg44
Nssg45
I2
sg20
I29
sg46
Nsg47
I0
sg48
(dp576
g50
g51
sg52
F0.29955900000000002
ssg53
Nsg54
Nsa(dp577
g13
g14
(S'\x07\xde\x05\r\x0b\x14\x00\x0e\xecP'
tRp578
sg16
g14
(S'\x07\xde\x05\r\x0b\x13\x0c\r\x94\x90'
tRp579
sg18
(dp580
g20
I30
sg21
(dp581
g23
(lp582
I30
asg25
(lp583
I30
asg27
(lp584
I30
asg29
(lp585
I30
asg31
(lp586
I30
assg33
(g34
g35
tp587
sg37
(dp588
g23
(lp589
F0.99679121452070729
asg25
(lp590
F9
asg27
(lp591
F37
asg29
(lp592
F68
asg31
(lp593
F7
assg44
Nssg45
I2
sg20
I30
sg46
Nsg47
I0
sg48
(dp594
g50
g51
sg52
F0.29886000000000001
ssg53
Nsg54
Nsa(dp595
g13
g14
(S'\x07\xde\x05\r\x0b\x14,\r\xd3\x10'
tRp596
sg16
g14
(S'\x07\xde\x05\r\x0b\x14\x00\x0f\x0fx'
tRp597
sg18
(dp598
g20
I31
sg21
(dp599
g23
(lp600
I31
asg25
(lp601
I31
asg27
(lp602
I31
asg29
(lp603
I31
asg31
(lp604
I31
assg33
(g34
g35
tp605
sg37
(dp606
g23
(lp607
F0.78843829297492407
asg25
(lp608
F3
asg27
(lp609
F39
asg29
(lp610
F68
asg31
(lp611
F6
assg44
Nssg45
I2
sg20
I31
sg46
Nsg47
I0
sg48
(dp612
g50
g51
sg52
F0.29800199999999999
ssg53
Nsg54
Nsa(dp613
g13
g14
(S'\x07\xde\x05\r\x0b\x15\x1d\x02>8'
tRp614
sg16
g14
(S'\x07\xde\x05\r\x0b\x14,\r\xfa '
tRp615
sg18
(dp616
g20
I32
sg21
(dp617
g23
(lp618
I32
asg25
(lp619
I32
asg27
(lp620
I32
asg29
(lp621
I32
asg31
(lp622
I32
assg33
(g34
g35
tp623
sg37
(dp624
g23
(lp625
F0.63709365708647991
asg25
(lp626
F3
asg27
(lp627
F96
asg29
(lp628
F89
asg31
(lp629
F8
assg44
Nssg45
I2
sg20
I32
sg46
Nsg47
I0
sg48
(dp630
g50
g51
sg52
F0.302564
ssg53
Nsg54
Nsa(dp631
g13
g14
(S'\x07\xde\x05\r\x0b\x16\x0b\x08\xd1\xd0'
tRp632
sg16
g14
(S'\x07\xde\x05\r\x0b\x15\x1d\x02eH'
tRp633
sg18
(dp634
g20
I33
sg21
(dp635
g23
(lp636
I33
asg25
(lp637
I33
asg27
(lp638
I33
asg29
(lp639
I33
asg31
(lp640
I33
assg33
(g34
g35
tp641
sg37
(dp642
g23
(lp643
F0.35401880061031499
asg25
(lp644
F8
asg27
(lp645
F39
asg29
(lp646
F97
asg31
(lp647
F5
assg44
Nssg45
I2
sg20
I33
sg46
Nsg47
I0
sg48
(dp648
g50
g51
sg52
F0.295296
ssg53
Nsg54
Nsa(dp649
g13
g14
(S'\x07\xde\x05\r\x0b\x17\n\x0c\x15\xc0'
tRp650
sg16
g14
(S'\x07\xde\x05\r\x0b\x16\x0b\x08\xf8\xe0'
tRp651
sg18
(dp652
g20
I34
sg21
(dp653
g23
(lp654
I34
asg25
(lp655
I34
asg27
(lp656
I34
asg29
(lp657
I34
asg31
(lp658
I34
assg33
(g34
g35
tp659
sg37
(dp660
g23
(lp661
F0.88724503028276447
asg25
(lp662
F10
asg27
(lp663
F9
asg29
(lp664
F89
asg31
(lp665
F5
assg44
Nssg45
I2
sg20
I34
sg46
Nsg47
I0
sg48
(dp666
g50
g51
sg52
F0.29661300000000002
ssg53
Nsg54
Nsa(dp667
g13
g14
(S'\x07\xde\x05\r\x0b\x175\x0b;\x00'
tRp668
sg16
g14
(S'\x07\xde\x05\r\x0b\x17\n\x0c<\xd0'
tRp669
sg18
(dp670
g20
I35
sg21
(dp671
g23
(lp672
I35
asg25
(lp673
I35
asg27
(lp674
I35
asg29
(lp675
I35
asg31
(lp676
I35
assg33
(g34
g35
tp677
sg37
(dp678
g23
(lp679
F0.6838778066162492
asg25
(lp680
F5
asg27
(lp681
F16
asg29
(lp682
F83
asg31
(lp683
F10
assg44
Nssg45
I2
sg20
I35
sg46
Nsg47
I0
sg48
(dp684
g50
g51
sg52
F0.30475099999999999
ssg53
Nsg54
Nsa(dp685
g13
g14
(S'\x07\xde\x05\r\x0b\x18\x11\r\x1bx'
tRp686
sg16
g14
(S'\x07\xde\x05\r\x0b\x175\x0b^('
tRp687
sg18
(dp688
g20
I36
sg21
(dp689
g23
(lp690
I36
asg25
(lp691
I36
asg27
(lp692
I36
asg29
(lp693
I36
asg31
(lp694
I36
assg33
(g34
g35
tp695
sg37
(dp696
g23
(lp697
F0.8772824514087123
asg25
(lp698
F1
asg27
(lp699
F85
asg29
(lp700
F22
asg31
(lp701
F3
assg44
Nssg45
I2
sg20
I36
sg46
Nsg47
I0
sg48
(dp702
g50
g51
sg52
F0.29621599999999998
ssg53
Nsg54
Nsa(dp703
g13
g14
(S'\x07\xde\x05\r\x0b\x18/\x00\xbb\x80'
tRp704
sg16
g14
(S'\x07\xde\x05\r\x0b\x18\x11\rB\x88'
tRp705
sg18
(dp706
g20
I37
sg21
(dp707
g23
(lp708
I37
asg25
(lp709
I37
asg27
(lp710
I37
asg29
(lp711
I37
asg31
(lp712
I37
assg33
(g34
g35
tp713
sg37
(dp714
g23
(lp715
F0.46315486704151365
asg25
(lp716
F7
asg27
(lp717
F59
asg29
(lp718
F53
asg31
(lp719
F6
assg44
Nssg45
I2
sg20
I37
sg46
Nsg47
I0
sg48
(dp720
g50
g51
sg52
F0.29966300000000001
ssg53
Nsg54
Nsa(dp721
g13
g14
(S'\x07\xde\x05\r\x0b\x19\x05\rJX'
tRp722
sg16
g14
(S'\x07\xde\x05\r\x0b\x18/\x00\xe2\x90'
tRp723
sg18
(dp724
g20
I38
sg21
(dp725
g23
(lp726
I38
asg25
(lp727
I38
asg27
(lp728
I38
asg29
(lp729
I38
asg31
(lp730
I38
assg33
(g34
g35
tp731
sg37
(dp732
g23
(lp733
F0.4753775318993031
asg25
(lp734
F5
asg27
(lp735
F93
asg29
(lp736
F23
asg31
(lp737
F7
assg44
Nssg45
I2
sg20
I38
sg46
Nsg47
I0
sg48
(dp738
g50
g51
sg52
F0.29513800000000001
ssg53
Nsg54
Nsa(dp739
g13
g14
(S'\x07\xde\x05\r\x0b\x195\x04\xe5\xe8'
tRp740
sg16
g14
(S'\x07\xde\x05\r\x0b\x19\x05\rqh'
tRp741
sg18
(dp742
g20
I39
sg21
(dp743
g23
(lp744
I39
asg25
(lp745
I39
asg27
(lp746
I39
asg29
(lp747
I39
asg31
(lp748
I39
assg33
(g34
g35
tp749
sg37
(dp750
g23
(lp751
F0.47336367325712403
asg25
(lp752
F4
asg27
(lp753
F79
asg29
(lp754
F94
asg31
(lp755
F5
assg44
Nssg45
I2
sg20
I39
sg46
Nsg47
I0
sg48
(dp756
g50
g51
sg52
F0.29113499999999998
ssg53
Nsg54
Nsa(dp757
g13
g14
(S'\x07\xde\x05\r\x0b\x1a\t\x05\xf7X'
tRp758
sg16
g14
(S'\x07\xde\x05\r\x0b\x195\x05\x0c\xf8'
tRp759
sg18
(dp760
g20
I40
sg21
(dp761
g23
(lp762
I40
asg25
(lp763
I40
asg27
(lp764
I40
asg29
(lp765
I40
asg31
(lp766
I40
assg33
(g34
g35
tp767
sg37
(dp768
g23
(lp769
F0.14144027468748896
asg25
(lp770
F8
asg27
(lp771
F99
asg29
(lp772
F17
asg31
(lp773
F2
assg44
Nssg45
I2
sg20
I40
sg46
Nsg47
I0
sg48
(dp774
g50
g51
sg52
F0.304477
ssg53
Nsg54
Nsa(dp775
g13
g14
(S'\x07\xde\x05\r\x0b\x1a\x1a\x07\xe3\x88'
tRp776
sg16
g14
(S'\x07\xde\x05\r\x0b\x1a\t\x06\x1eh'
tRp777
sg18
(dp778
g20
I41
sg21
(dp779
g23
(lp780
I41
asg25
(lp781
I41
asg27
(lp782
I41
asg29
(lp783
I41
asg31
(lp784
I41
assg33
(g34
g35
tp785
sg37
(dp786
g23
(lp787
F0.21062528187913776
asg25
(lp788
F8
asg27
(lp789
F94
asg29
(lp790
F35
asg31
(lp791
F5
assg44
Nssg45
I2
sg20
I41
sg46
Nsg47
I0
sg48
(dp792
g50
g51
sg52
F0.30413200000000001
ssg53
Nsg54
Nsa(dp793
g13
g14
(S'\x07\xde\x05\r\x0b\x1b\x07\nd('
tRp794
sg16
g14
(S'\x07\xde\x05\r\x0b\x1a\x1a\x08\n\x98'
tRp795
sg18
(dp796
g20
I42
sg21
(dp797
g23
(lp798
I42
asg25
(lp799
I42
asg27
(lp800
I42
asg29
(lp801
I42
asg31
(lp802
I42
assg33
(g34
g35
tp803
sg37
(dp804
g23
(lp805
F0.92266372689939447
asg25
(lp806
F6
asg27
(lp807
F78
asg29
(lp808
F62
asg31
(lp809
F7
assg44
Nssg45
I2
sg20
I42
sg46
Nsg47
I0
sg48
(dp810
g50
g51
sg52
F0.30095899999999998
ssg53
Nsg54
Nsa(dp811
g13
g14
(S'\x07\xde\x05\r\x0b\x1b\x1d\x0e\xd0\xf8'
tRp812
sg16
g14
(S'\x07\xde\x05\r\x0b\x1b\x07\n\x8b8'
tRp813
sg18
(dp814
g20
I43
sg21
(dp815
g23
(lp816
I43
asg25
(lp817
I43
asg27
(lp818
I43
asg29
(lp819
I43
asg31
(lp820
I43
assg33
(g34
g35
tp821
sg37
(dp822
g23
(lp823
F0.46051817692246133
asg25
(lp824
F2
asg27
(lp825
F2
asg29
(lp826
F27
asg31
(lp827
F3
assg44
Nssg45
I2
sg20
I43
sg46
Nsg47
I0
sg48
(dp828
g50
g51
sg52
F0.285215
ssg53
Nsg54
Nsa(dp829
g13
g14
(S'\x07\xde\x05\r\x0b\x1b3\r\xe2\xb0'
tRp830
sg16
g14
(S'\x07\xde\x05\r\x0b\x1b\x1d\x0e\xf8\x08'
tRp831
sg18
(dp832
g20
I44
sg21
(dp833
g23
(lp834
I44
asg25
(lp835
I44
asg27
(lp836
I44
asg29
(lp837
I44
asg31
(lp838
I44
assg33
(g34
g35
tp839
sg37
(dp840
g23
(lp841
F0.40599425837845948
asg25
(lp842
F6
asg27
(lp843
F40
asg29
(lp844
F26
asg31
(lp845
F5
assg44
Nssg45
I2
sg20
I44
sg46
Nsg47
I0
sg48
(dp846
g50
g51
sg52
F0.293244
ssg53
Nsg54
Nsa(dp847
g13
g14
(S'\x07\xde\x05\r\x0b\x1c#\n\x02\x80'
tRp848
sg16
g14
(S'\x07\xde\x05\r\x0b\x1b3\x0e\r\xa8'
tRp849
sg18
(dp850
g20
I45
sg21
(dp851
g23
(lp852
I45
asg25
(lp853
I45
asg27
(lp854
I45
asg29
(lp855
I45
asg31
(lp856
I45
assg33
(g34
g35
tp857
sg37
(dp858
g23
(lp859
F0.27320242054162214
asg25
(lp860
F2
asg27
(lp861
F85
asg29
(lp862
F89
asg31
(lp863
F2
assg44
Nssg45
I2
sg20
I45
sg46
Nsg47
I0
sg48
(dp864
g50
g51
sg52
F0.28474100000000002
ssg53
Nsg54
Nsa(dp865
g13
g14
(S'\x07\xde\x05\r\x0b\x1d\x05\x08AH'
tRp866
sg16
g14
(S'\x07\xde\x05\r\x0b\x1c#\n)\x90'
tRp867
sg18
(dp868
g20
I46
sg21
(dp869
g23
(lp870
I46
asg25
(lp871
I46
asg27
(lp872
I46
asg29
(lp873
I46
asg31
(lp874
I46
assg33
(g34
g35
tp875
sg37
(dp876
g23
(lp877
F0.40671375839751889
asg25
(lp878
F5
asg27
(lp879
F90
asg29
(lp880
F60
asg31
(lp881
F2
assg44
Nssg45
I2
sg20
I46
sg46
Nsg47
I0
sg48
(dp882
g50
g51
sg52
F0.28324700000000003
ssg53
Nsg54
Nsa(dp883
g13
g14
(S'\x07\xde\x05\r\x0b\x1e\x01\n\xaax'
tRp884
sg16
g14
(S'\x07\xde\x05\r\x0b\x1d\x05\x08hX'
tRp885
sg18
(dp886
g20
I47
sg21
(dp887
g23
(lp888
I47
asg25
(lp889
I47
asg27
(lp890
I47
asg29
(lp891
I47
asg31
(lp892
I47
assg33
(g34
g35
tp893
sg37
(dp894
g23
(lp895
F0.60602176364882343
asg25
(lp896
F6
asg27
(lp897
F74
asg29
(lp898
F90
asg31
(lp899
F1
assg44
Nssg45
I2
sg20
I47
sg46
Nsg47
I0
sg48
(dp900
g50
g51
sg52
F0.27901300000000001
ssg53
Nsg54
Nsa(dp901
g13
g14
(S'\x07\xde\x05\r\x0b\x1e\x17\t/\x90'
tRp902
sg16
g14
(S'\x07\xde\x05\r\x0b\x1e\x01\n\xd5p'
tRp903
sg18
(dp904
g20
I48
sg21
(dp905
g23
(lp906
I48
asg25
(lp907
I48
asg27
(lp908
I48
asg29
(lp909
I48
asg31
(lp910
I48
assg33
(g34
g35
tp911
sg37
(dp912
g23
(lp913
F0.90771386204738325
asg25
(lp914
F7
asg27
(lp915
F59
asg29
(lp916
F15
asg31
(lp917
F10
assg44
Nssg45
I2
sg20
I48
sg46
Nsg47
I0
sg48
(dp918
g50
g51
sg52
F0.309915
ssg53
Nsg54
Nsa(dp919
g13
g14
(S'\x07\xde\x05\r\x0b\x1e4\x01\x1d('
tRp920
sg16
g14
(S'\x07\xde\x05\r\x0b\x1e\x17\tZ\x88'
tRp921
sg18
(dp922
g20
I49
sg21
(dp923
g23
(lp924
I49
asg25
(lp925
I49
asg27
(lp926
I49
asg29
(lp927
I49
asg31
(lp928
I49
assg33
(g34
g35
tp929
sg37
(dp930
g23
(lp931
F0.65886416092037048
asg25
(lp932
F7
asg27
(lp933
F12
asg29
(lp934
F50
asg31
(lp935
F6
assg44
Nssg45
I2
sg20
I49
sg46
Nsg47
I0
sg48
(dp936
g50
g51
sg52
F0.29869800000000002
ssg53
Nsg54
Nsa(dp937
g13
g14
(S'\x07\xde\x05\r\x0b\x1f\x16\x04\xf9p'
tRp938
sg16
g14
(S'\x07\xde\x05\r\x0b\x1e4\x01O\xf0'
tRp939
sg18
(dp940
g20
I50
sg21
(dp941
g23
(lp942
I50
asg25
(lp943
I50
asg27
(lp944
I50
asg29
(lp945
I50
asg31
(lp946
I50
assg33
(g34
g35
tp947
sg37
(dp948
g23
(lp949
F0.30735555500040179
asg25
(lp950
F9
asg27
(lp951
F32
asg29
(lp952
F77
asg31
(lp953
F10
assg44
Nssg45
I2
sg20
I50
sg46
Nsg47
I0
sg48
(dp954
g50
g51
sg52
F0.31259399999999998
ssg53
Nsg54
Nsa(dp955
g13
g14
(S"\x07\xde\x05\r\x0b\x1f'\x06`\xd0"
tRp956
sg16
g14
(S'\x07\xde\x05\r\x0b\x1f\x16\x05(P'
tRp957
sg18
(dp958
g20
I51
sg21
(dp959
g23
(lp960
I51
asg25
(lp961
I51
asg27
(lp962
I51
asg29
(lp963
I51
asg31
(lp964
I51
assg33
(g34
g35
tp965
sg37
(dp966
g23
(lp967
F0.15002291523238556
asg25
(lp968
F1
asg27
(lp969
F73
asg29
(lp970
F28
asg31
(lp971
F2
assg44
Nssg45
I2
sg20
I51
sg46
Nsg47
I0
sg48
(dp972
g50
g51
sg52
F0.29611900000000002
ssg53
Nsg54
Nsa(dp973
g13
g14
(S'\x07\xde\x05\r\x0b \x10\x02\xf5\xd0'
tRp974
sg16
g14
(S"\x07\xde\x05\r\x0b\x1f'\x06\x87\xe0"
tRp975
sg18
(dp976
g20
I52
sg21
(dp977
g23
(lp978
I52
asg25
(lp979
I52
asg27
(lp980
I52
asg29
(lp981
I52
asg31
(lp982
I52
assg33
(g34
g35
tp983
sg37
(dp984
g23
(lp985
F0.53017615890086167
asg25
(lp986
F3
asg27
(lp987
F52
asg29
(lp988
F51
asg31
(lp989
F1
assg44
Nssg45
I2
sg20
I52
sg46
Nsg47
I0
sg48
(dp990
g50
g51
sg52
F0.27805099999999999
ssg53
Nsg54
Nsa(dp991
g13
g14
(S'\x07\xde\x05\r\x0b ,\x06\x16\x98'
tRp992
sg16
g14
(S'\x07\xde\x05\r\x0b \x10\x03 \xc8'
tRp993
sg18
(dp994
g20
I53
sg21
(dp995
g23
(lp996
I53
asg25
(lp997
I53
asg27
(lp998
I53
asg29
(lp999
I53
asg31
(lp1000
I53
assg33
(g34
g35
tp1001
sg37
(dp1002
g23
(lp1003
F0.10678578146777518
asg25
(lp1004
F9
asg27
(lp1005
F37
asg29
(lp1006
F80
asg31
(lp1007
F8
assg44
Nssg45
I2
sg20
I53
sg46
Nsg47
I0
sg48
(dp1008
g50
g51
sg52
F0.33319599999999999
ssg53
Nsg54
Nsa(dp1009
g13
g14
(S'\x07\xde\x05\r\x0b!\x1a\x0f\x13`'
tRp1010
sg16
g14
(S'\x07\xde\x05\r\x0b ,\x06=\xa8'
tRp1011
sg18
(dp1012
g20
I54
sg21
(dp1013
g23
(lp1014
I54
asg25
(lp1015
I54
asg27
(lp1016
I54
asg29
(lp1017
I54
asg31
(lp1018
I54
assg33
(g34
g35
tp1019
sg37
(dp1020
g23
(lp1021
F0.76316362733592702
asg25
(lp1022
F7
asg27
(lp1023
F51
asg29
(lp1024
F80
asg31
(lp1025
F10
assg44
Nssg45
I2
sg20
I54
sg46
Nsg47
I0
sg48
(dp1026
g50
g51
sg52
F0.30647000000000002
ssg53
Nsg54
Nsa(dp1027
g13
g14
(S'\x07\xde\x05\r\x0b"\x04\x07(\x08'
tRp1028
sg16
g14
(S'\x07\xde\x05\r\x0b!\x1b\x00\x00\x00'
tRp1029
sg18
(dp1030
g20
I55
sg21
(dp1031
g23
(lp1032
I55
asg25
(lp1033
I55
asg27
(lp1034
I55
asg29
(lp1035
I55
asg31
(lp1036
I55
assg33
(g34
g35
tp1037
sg37
(dp1038
g23
(lp1039
F0.15182350620309062
asg25
(lp1040
F3
asg27
(lp1041
F92
asg29
(lp1042
F96
asg31
(lp1043
F3
assg44
Nssg45
I2
sg20
I55
sg46
Nsg47
I0
sg48
(dp1044
g50
g51
sg52
F0.30282399999999998
ssg53
Nsg54
Nsa(dp1045
g13
g14
(S'\x07\xde\x05\r\x0b"\x1a\x0f\x17H'
tRp1046
sg16
g14
(S'\x07\xde\x05\r\x0b"\x04\x07S\x00'
tRp1047
sg18
(dp1048
g20
I56
sg21
(dp1049
g23
(lp1050
I56
asg25
(lp1051
I56
asg27
(lp1052
I56
asg29
(lp1053
I56
asg31
(lp1054
I56
assg33
(g34
g35
tp1055
sg37
(dp1056
g23
(lp1057
F0.59893254321031553
asg25
(lp1058
F9
asg27
(lp1059
F71
asg29
(lp1060
F28
asg31
(lp1061
F7
assg44
Nssg45
I2
sg20
I56
sg46
Nsg47
I0
sg48
(dp1062
g50
g51
sg52
F0.29882700000000001
ssg53
Nsg54
Nsa(dp1063
g13
g14
(S'\x07\xde\x05\r\x0b#\x00\x02\x07\x88'
tRp1064
sg16
g14
(S'\x07\xde\x05\r\x0b"\x1a\x0f>X'
tRp1065
sg18
(dp1066
g20
I57
sg21
(dp1067
g23
(lp1068
I57
asg25
(lp1069
I57
asg27
(lp1070
I57
asg29
(lp1071
I57
asg31
(lp1072
I57
assg33
(g34
g35
tp1073
sg37
(dp1074
g23
(lp1075
F0.35469693972883132
asg25
(lp1076
F9
asg27
(lp1077
F22
asg29
(lp1078
F79
asg31
(lp1079
F5
assg44
Nssg45
I2
sg20
I57
sg46
Nsg47
I0
sg48
(dp1080
g50
g51
sg52
F0.29710500000000001
ssg53
Nsg54
Nsa(dp1081
g13
g14
(S'\x07\xde\x05\r\x0b#\x1c\x0c\xd5('
tRp1082
sg16
g14
(S'\x07\xde\x05\r\x0b#\x00\x022\x80'
tRp1083
sg18
(dp1084
g20
I58
sg21
(dp1085
g23
(lp1086
I58
asg25
(lp1087
I58
asg27
(lp1088
I58
asg29
(lp1089
I58
asg31
(lp1090
I58
assg33
(g34
g35
tp1091
sg37
(dp1092
g23
(lp1093
F0.17501168434515507
asg25
(lp1094
F10
asg27
(lp1095
F97
asg29
(lp1096
F73
asg31
(lp1097
F1
assg44
Nssg45
I2
sg20
I58
sg46
Nsg47
I0
sg48
(dp1098
g50
g51
sg52
F0.30404700000000001
ssg53
Nsg54
Nsa(dp1099
g13
g14
(S'\x07\xde\x05\r\x0b$\x04\x05\x99\x98'
tRp1100
sg16
g14
(S'\x07\xde\x05\r\x0b#\x1c\r\x00 '
tRp1101
sg18
(dp1102
g20
I59
sg21
(dp1103
g23
(lp1104
I59
asg25
(lp1105
I59
asg27
(lp1106
I59
asg29
(lp1107
I59
asg31
(lp1108
I59
assg33
(g34
g35
tp1109
sg37
(dp1110
g23
(lp1111
F0.85198224782733112
asg25
(lp1112
F9
asg27
(lp1113
F79
asg29
(lp1114
F50
asg31
(lp1115
F2
assg44
Nssg45
I2
sg20
I59
sg46
Nsg47
I0
sg48
(dp1116
g50
g51
sg52
F0.29081899999999999
ssg53
Nsg54
Nsa(dp1117
g13
g14
(S'\x07\xde\x05\r\x0b$7\x08\x9b '
tRp1118
sg16
g14
(S'\x07\xde\x05\r\x0b$\x04\x05\xc8x'
tRp1119
sg18
(dp1120
g20
I60
sg21
(dp1121
g23
(lp1122
I60
asg25
(lp1123
I60
asg27
(lp1124
I60
asg29
(lp1125
I60
asg31
(lp1126
I60
assg33
(g34
g35
tp1127
sg37
(dp1128
g23
(lp1129
F0.77938187166100725
asg25
(lp1130
F9
asg27
(lp1131
F19
asg29
(lp1132
F84
asg31
(lp1133
F2
assg44
Nssg45
I2
sg20
I60
sg46
Nsg47
I0
sg48
(dp1134
g50
g51
sg52
F0.28794399999999998
ssg53
Nsg54
Nsa(dp1135
g13
g14
(S'\x07\xde\x05\r\x0b%(\n\xaax'
tRp1136
sg16
g14
(S'\x07\xde\x05\r\x0b$7\x08\xc6\x18'
tRp1137
sg18
(dp1138
g20
I61
sg21
(dp1139
g23
(lp1140
I61
asg25
(lp1141
I61
asg27
(lp1142
I61
asg29
(lp1143
I61
asg31
(lp1144
I61
assg33
(g34
g35
tp1145
sg37
(dp1146
g23
(lp1147
F0.29018248090955334
asg25
(lp1148
F2
asg27
(lp1149
F76
asg29
(lp1150
F72
asg31
(lp1151
F1
assg44
Nssg45
I2
sg20
I61
sg46
Nsg47
I0
sg48
(dp1152
g50
g51
sg52
F0.27970099999999998
ssg53
Nsg54
Nsa(dp1153
g13
g14
(S'\x07\xde\x05\r\x0b&\t\x03O\xa8'
tRp1154
sg16
g14
(S'\x07\xde\x05\r\x0b%(\n\xd9X'
tRp1155
sg18
(dp1156
g20
I62
sg21
(dp1157
g23
(lp1158
I62
asg25
(lp1159
I62
asg27
(lp1160
I62
asg29
(lp1161
I62
asg31
(lp1162
I62
assg33
(g34
g35
tp1163
sg37
(dp1164
g23
(lp1165
F0.20773054437714039
asg25
(lp1166
F6
asg27
(lp1167
F25
asg29
(lp1168
F73
asg31
(lp1169
F5
assg44
Nssg45
I2
sg20
I62
sg46
Nsg47
I0
sg48
(dp1170
g50
g51
sg52
F0.30382799999999999
ssg53
Nsg54
Nsa(dp1171
g13
g14
(S'\x07\xde\x05\r\x0b&"\x03\xd8`'
tRp1172
sg16
g14
(S'\x07\xde\x05\r\x0b&\t\x03~\x88'
tRp1173
sg18
(dp1174
g20
I63
sg21
(dp1175
g23
(lp1176
I63
asg25
(lp1177
I63
asg27
(lp1178
I63
asg29
(lp1179
I63
asg31
(lp1180
I63
assg33
(g34
g35
tp1181
sg37
(dp1182
g23
(lp1183
F0.19248923067576459
asg25
(lp1184
F8
asg27
(lp1185
F6
asg29
(lp1186
F65
asg31
(lp1187
F9
assg44
Nssg45
I2
sg20
I63
sg46
Nsg47
I0
sg48
(dp1188
g50
g51
sg52
F0.31265300000000001
ssg53
Nsg54
Nsa(dp1189
g13
g14
(S"\x07\xde\x05\r\x0b'\x0e\x0f#\x00"
tRp1190
sg16
g14
(S'\x07\xde\x05\r\x0b&"\x04\x03X'
tRp1191
sg18
(dp1192
g20
I64
sg21
(dp1193
g23
(lp1194
I64
asg25
(lp1195
I64
asg27
(lp1196
I64
asg29
(lp1197
I64
asg31
(lp1198
I64
assg33
(g34
g35
tp1199
sg37
(dp1200
g23
(lp1201
F0.39595779153119093
asg25
(lp1202
F2
asg27
(lp1203
F91
asg29
(lp1204
F84
asg31
(lp1205
F9
assg44
Nssg45
I2
sg20
I64
sg46
Nsg47
I0
sg48
(dp1206
g50
g51
sg52
F0.30525099999999999
ssg53
Nsg54
Nsa(dp1207
g13
g14
(S"\x07\xde\x05\r\x0b'+\x04p\xb8"
tRp1208
sg16
g14
(S"\x07\xde\x05\r\x0b'\x0f\x02\xbf "
tRp1209
sg18
(dp1210
g20
I65
sg21
(dp1211
g23
(lp1212
I65
asg25
(lp1213
I65
asg27
(lp1214
I65
asg29
(lp1215
I65
asg31
(lp1216
I65
assg33
(g34
g35
tp1217
sg37
(dp1218
g23
(lp1219
F0.69333816817071681
asg25
(lp1220
F4
asg27
(lp1221
F76
asg29
(lp1222
F35
asg31
(lp1223
F10
assg44
Nssg45
I2
sg20
I65
sg46
Nsg47
I0
sg48
(dp1224
g50
g51
sg52
F0.30449700000000002
ssg53
Nsg54
Nsa(dp1225
g13
g14
(S'\x07\xde\x05\r\x0b(\x0b\x0cLp'
tRp1226
sg16
g14
(S"\x07\xde\x05\r\x0b'+\x04\x9f\x98"
tRp1227
sg18
(dp1228
g20
I66
sg21
(dp1229
g23
(lp1230
I66
asg25
(lp1231
I66
asg27
(lp1232
I66
asg29
(lp1233
I66
asg31
(lp1234
I66
assg33
(g34
g35
tp1235
sg37
(dp1236
g23
(lp1237
F0.62564639270216627
asg25
(lp1238
F8
asg27
(lp1239
F16
asg29
(lp1240
F40
asg31
(lp1241
F7
assg44
Nssg45
I2
sg20
I66
sg46
Nsg47
I0
sg48
(dp1242
g50
g51
sg52
F0.299593
ssg53
Nsg54
Nsa(dp1243
g13
g14
(S'\x07\xde\x05\r\x0b(\x0e\n\xba\x18'
tRp1244
sg16
g14
(S'\x07\xde\x05\r\x0b(\x0b\x0cwh'
tRp1245
sg18
(dp1246
g20
I67
sg21
(dp1247
g23
(lp1248
I67
asg25
(lp1249
I67
asg27
(lp1250
I67
asg29
(lp1251
I67
asg31
(lp1252
I67
assg33
(g34
g35
tp1253
sg37
(dp1254
g23
(lp1255
F0.28791075253145049
asg25
(lp1256
F10
asg27
(lp1257
F20
asg29
(lp1258
F1
asg31
(lp1259
F8
assg44
Nssg45
I2
sg20
I67
sg46
Nsg47
I0
sg48
(dp1260
g50
g51
sg52
F0.34958699999999998
ssg53
Nsg54
Nsa(dp1261
g13
g14
(S'\x07\xde\x05\r\x0b(6\x0e\x19`'
tRp1262
sg16
g14
(S'\x07\xde\x05\r\x0b(\x0e\n\xe8\xf8'
tRp1263
sg18
(dp1264
g20
I68
sg21
(dp1265
g23
(lp1266
I68
asg25
(lp1267
I68
asg27
(lp1268
I68
asg29
(lp1269
I68
asg31
(lp1270
I68
assg33
(g34
g35
tp1271
sg37
(dp1272
g23
(lp1273
F0.45491409282784456
asg25
(lp1274
F3
asg27
(lp1275
F79
asg29
(lp1276
F81
asg31
(lp1277
F8
assg44
Nssg45
I2
sg20
I68
sg46
Nsg47
I0
sg48
(dp1278
g50
g51
sg52
F0.30099900000000002
ssg53
Nsg54
Nsa(dp1279
g13
g14
(S'\x07\xde\x05\r\x0b)\x13\x03\xc4\xd8'
tRp1280
sg16
g14
(S'\x07\xde\x05\r\x0b(6\x0eDX'
tRp1281
sg18
(dp1282
g20
I69
sg21
(dp1283
g23
(lp1284
I69
asg25
(lp1285
I69
asg27
(lp1286
I69
asg29
(lp1287
I69
asg31
(lp1288
I69
assg33
(g34
g35
tp1289
sg37
(dp1290
g23
(lp1291
F0.61841187725376578
asg25
(lp1292
F9
asg27
(lp1293
F76
asg29
(lp1294
F35
asg31
(lp1295
F3
assg44
Nssg45
I2
sg20
I69
sg46
Nsg47
I0
sg48
(dp1296
g50
g51
sg52
F0.289962
ssg53
Nsg54
Nsa(dp1297
g13
g14
(S'\x07\xde\x05\r\x0b*\t\x08\xaa\xc0'
tRp1298
sg16
g14
(S'\x07\xde\x05\r\x0b)\x13\x03\xf3\xb8'
tRp1299
sg18
(dp1300
g20
I70
sg21
(dp1301
g23
(lp1302
I70
asg25
(lp1303
I70
asg27
(lp1304
I70
asg29
(lp1305
I70
asg31
(lp1306
I70
assg33
(g34
g35
tp1307
sg37
(dp1308
g23
(lp1309
F0.82327952152663031
asg25
(lp1310
F6
asg27
(lp1311
F36
asg29
(lp1312
F80
asg31
(lp1313
F9
assg44
Nssg45
I2
sg20
I70
sg46
Nsg47
I0
sg48
(dp1314
g50
g51
sg52
F0.304512
ssg53
Nsg54
Nsa(dp1315
g13
g14
(S'\x07\xde\x05\r\x0b*\x19\x03\x15\x10'
tRp1316
sg16
g14
(S'\x07\xde\x05\r\x0b*\t\x08\xdd\x88'
tRp1317
sg18
(dp1318
g20
I71
sg21
(dp1319
g23
(lp1320
I71
asg25
(lp1321
I71
asg27
(lp1322
I71
asg29
(lp1323
I71
asg31
(lp1324
I71
assg33
(g34
g35
tp1325
sg37
(dp1326
g23
(lp1327
F0.20227721583557751
asg25
(lp1328
F1
asg27
(lp1329
F73
asg29
(lp1330
F4
asg31
(lp1331
F8
assg44
Nssg45
I2
sg20
I71
sg46
Nsg47
I0
sg48
(dp1332
g50
g51
sg52
F0.33137
ssg53
Nsg54
Nsa(dp1333
g13
g14
(S'\x07\xde\x05\r\x0b*+\tj('
tRp1334
sg16
g14
(S'\x07\xde\x05\r\x0b*\x19\x03C\xf0'
tRp1335
sg18
(dp1336
g20
I72
sg21
(dp1337
g23
(lp1338
I72
asg25
(lp1339
I72
asg27
(lp1340
I72
asg29
(lp1341
I72
asg31
(lp1342
I72
assg33
(g34
g35
tp1343
sg37
(dp1344
g23
(lp1345
F0.11347608049546776
asg25
(lp1346
F3
asg27
(lp1347
F59
asg29
(lp1348
F19
asg31
(lp1349
F4
assg44
Nssg45
I2
sg20
I72
sg46
Nsg47
I0
sg48
(dp1350
g50
g51
sg52
F0.32353199999999999
ssg53
Nsg54
Nsa(dp1351
g13
g14
(S"\x07\xde\x05\r\x0b+\x11\x00'\x10"
tRp1352
sg16
g14
(S'\x07\xde\x05\r\x0b*+\t\x99\x08'
tRp1353
sg18
(dp1354
g20
I73
sg21
(dp1355
g23
(lp1356
I73
asg25
(lp1357
I73
asg27
(lp1358
I73
asg29
(lp1359
I73
asg31
(lp1360
I73
assg33
(g34
g35
tp1361
sg37
(dp1362
g23
(lp1363
F0.47886632993363254
asg25
(lp1364
F2
asg27
(lp1365
F52
asg29
(lp1366
F53
asg31
(lp1367
F2
assg44
Nssg45
I2
sg20
I73
sg46
Nsg47
I0
sg48
(dp1368
g50
g51
sg52
F0.28328500000000001
ssg53
Nsg54
Nsa(dp1369
g13
g14
(S'\x07\xde\x05\r\x0b+.\x01\r\x88'
tRp1370
sg16
g14
(S'\x07\xde\x05\r\x0b+\x11\x00U\xf0'
tRp1371
sg18
(dp1372
g20
I74
sg21
(dp1373
g23
(lp1374
I74
asg25
(lp1375
I74
asg27
(lp1376
I74
asg29
(lp1377
I74
asg31
(lp1378
I74
assg33
(g34
g35
tp1379
sg37
(dp1380
g23
(lp1381
F0.6650682494513579
asg25
(lp1382
F8
asg27
(lp1383
F80
asg29
(lp1384
F46
asg31
(lp1385
F10
assg44
Nssg45
I2
sg20
I74
sg46
Nsg47
I0
sg48
(dp1386
g50
g51
sg52
F0.307896
ssg53
Nsg54
Nsa(dp1387
g13
g14
(S'\x07\xde\x05\r\x0b,\x07\x0c\x06 '
tRp1388
sg16
g14
(S'\x07\xde\x05\r\x0b+.\x01<h'
tRp1389
sg18
(dp1390
g20
I75
sg21
(dp1391
g23
(lp1392
I75
asg25
(lp1393
I75
asg27
(lp1394
I75
asg29
(lp1395
I75
asg31
(lp1396
I75
assg33
(g34
g35
tp1397
sg37
(dp1398
g23
(lp1399
F0.84901494874859373
asg25
(lp1400
F8
asg27
(lp1401
F66
asg29
(lp1402
F24
asg31
(lp1403
F7
assg44
Nssg45
I2
sg20
I75
sg46
Nsg47
I0
sg48
(dp1404
g50
g51
sg52
F0.29781999999999997
ssg53
Nsg54
Nsa(dp1405
g13
g14
(S'\x07\xde\x05\r\x0b,(\x0c\xb5\xe8'
tRp1406
sg16
g14
(S'\x07\xde\x05\r\x0b,\x07\x0c1\x18'
tRp1407
sg18
(dp1408
g20
I76
sg21
(dp1409
g23
(lp1410
I76
asg25
(lp1411
I76
asg27
(lp1412
I76
asg29
(lp1413
I76
asg31
(lp1414
I76
assg33
(g34
g35
tp1415
sg37
(dp1416
g23
(lp1417
F0.23445225331931085
asg25
(lp1418
F3
asg27
(lp1419
F12
asg29
(lp1420
F85
asg31
(lp1421
F5
assg44
Nssg45
I2
sg20
I76
sg46
Nsg47
I0
sg48
(dp1422
g50
g51
sg52
F0.30334899999999998
ssg53
Nsg54
Nsa(dp1423
g13
g14
(S'\x07\xde\x05\r\x0b,8\x0b\x17\xd8'
tRp1424
sg16
g14
(S'\x07\xde\x05\r\x0b,(\x0c\xe4\xc8'
tRp1425
sg18
(dp1426
g20
I77
sg21
(dp1427
g23
(lp1428
I77
asg25
(lp1429
I77
asg27
(lp1430
I77
asg29
(lp1431
I77
asg31
(lp1432
I77
assg33
(g34
g35
tp1433
sg37
(dp1434
g23
(lp1435
F0.95910663498622417
asg25
(lp1436
F7
asg27
(lp1437
F52
asg29
(lp1438
F7
asg31
(lp1439
F2
assg44
Nssg45
I2
sg20
I77
sg46
Nsg47
I0
sg48
(dp1440
g50
g51
sg52
F0.30407000000000001
ssg53
Nsg54
Nsa(dp1441
g13
g14
(S'\x07\xde\x05\r\x0b-"\x02U\xa8'
tRp1442
sg16
g14
(S'\x07\xde\x05\r\x0b,8\x0bF\xb8'
tRp1443
sg18
(dp1444
g20
I78
sg21
(dp1445
g23
(lp1446
I78
asg25
(lp1447
I78
asg27
(lp1448
I78
asg29
(lp1449
I78
asg31
(lp1450
I78
assg33
(g34
g35
tp1451
sg37
(dp1452
g23
(lp1453
F0.45776365073196423
asg25
(lp1454
F4
asg27
(lp1455
F51
asg29
(lp1456
F72
asg31
(lp1457
F4
assg44
Nssg45
I2
sg20
I78
sg46
Nsg47
I0
sg48
(dp1458
g50
g51
sg52
F0.28827799999999998
ssg53
Nsg54
Nsa(dp1459
g13
g14
(S'\x07\xde\x05\r\x0b."\x04U`'
tRp1460
sg16
g14
(S'\x07\xde\x05\r\x0b-"\x02\x84\x88'
tRp1461
sg18
(dp1462
g20
I79
sg21
(dp1463
g23
(lp1464
I79
asg25
(lp1465
I79
asg27
(lp1466
I79
asg29
(lp1467
I79
asg31
(lp1468
I79
assg33
(g34
g35
tp1469
sg37
(dp1470
g23
(lp1471
F0.80047977440195728
asg25
(lp1472
F8
asg27
(lp1473
F35
asg29
(lp1474
F97
asg31
(lp1475
F4
assg44
Nssg45
I2
sg20
I79
sg46
Nsg47
I0
sg48
(dp1476
g50
g51
sg52
F0.28948600000000002
ssg53
Nsg54
Nsa(dp1477
g13
g14
(S'\x07\xde\x05\r\x0b/\x03\x08\xa6\xd8'
tRp1478
sg16
g14
(S'\x07\xde\x05\r\x0b."\x04\x84@'
tRp1479
sg18
(dp1480
g20
I80
sg21
(dp1481
g23
(lp1482
I80
asg25
(lp1483
I80
asg27
(lp1484
I80
asg29
(lp1485
I80
asg31
(lp1486
I80
assg33
(g34
g35
tp1487
sg37
(dp1488
g23
(lp1489
F0.97662027698964171
asg25
(lp1490
F8
asg27
(lp1491
F29
asg29
(lp1492
F36
asg31
(lp1493
F10
assg44
Nssg45
I2
sg20
I80
sg46
Nsg47
I0
sg48
(dp1494
g50
g51
sg52
F0.30560100000000001
ssg53
Nsg54
Nsa(dp1495
g13
g14
(S'\x07\xde\x05\r\x0b/)\x0c\xd1@'
tRp1496
sg16
g14
(S'\x07\xde\x05\r\x0b/\x03\x08\xd9\xa0'
tRp1497
sg18
(dp1498
g20
I81
sg21
(dp1499
g23
(lp1500
I81
asg25
(lp1501
I81
asg27
(lp1502
I81
asg29
(lp1503
I81
asg31
(lp1504
I81
assg33
(g34
g35
tp1505
sg37
(dp1506
g23
(lp1507
F0.64590461943251465
asg25
(lp1508
F4
asg27
(lp1509
F76
asg29
(lp1510
F58
asg31
(lp1511
F6
assg44
Nssg45
I2
sg20
I81
sg46
Nsg47
I0
sg48
(dp1512
g50
g51
sg52
F0.29808699999999999
ssg53
Nsg54
Nsa(dp1513
g13
g14
(S'\x07\xde\x05\r\x0b0\x16\x08p('
tRp1514
sg16
g14
(S'\x07\xde\x05\r\x0b/)\r\x04\x08'
tRp1515
sg18
(dp1516
g20
I82
sg21
(dp1517
g23
(lp1518
I82
asg25
(lp1519
I82
asg27
(lp1520
I82
asg29
(lp1521
I82
asg31
(lp1522
I82
assg33
(g34
g35
tp1523
sg37
(dp1524
g23
(lp1525
F0.55104981157700472
asg25
(lp1526
F2
asg27
(lp1527
F60
asg29
(lp1528
F76
asg31
(lp1529
F9
assg44
Nssg45
I2
sg20
I82
sg46
Nsg47
I0
sg48
(dp1530
g50
g51
sg52
F0.30452899999999999
ssg53
Nsg54
Nsa(dp1531
g13
g14
(S'\x07\xde\x05\r\x0b0,\tN\xd0'
tRp1532
sg16
g14
(S'\x07\xde\x05\r\x0b0\x16\x08\xa2\xf0'
tRp1533
sg18
(dp1534
g20
I83
sg21
(dp1535
g23
(lp1536
I83
asg25
(lp1537
I83
asg27
(lp1538
I83
asg29
(lp1539
I83
asg31
(lp1540
I83
assg33
(g34
g35
tp1541
sg37
(dp1542
g23
(lp1543
F0.61165733898882357
asg25
(lp1544
F10
asg27
(lp1545
F60
asg29
(lp1546
F26
asg31
(lp1547
F3
assg44
Nssg45
I2
sg20
I83
sg46
Nsg47
I0
sg48
(dp1548
g50
g51
sg52
F0.29316999999999999
ssg53
Nsg54
Nsa(dp1549
g13
g14
(S'\x07\xde\x05\r\x0b1\x07\x03\x1c\xe0'
tRp1550
sg16
g14
(S'\x07\xde\x05\r\x0b0,\t\x81\x98'
tRp1551
sg18
(dp1552
g20
I84
sg21
(dp1553
g23
(lp1554
I84
asg25
(lp1555
I84
asg27
(lp1556
I84
asg29
(lp1557
I84
asg31
(lp1558
I84
assg33
(g34
g35
tp1559
sg37
(dp1560
g23
(lp1561
F0.45598425019194666
asg25
(lp1562
F9
asg27
(lp1563
F4
asg29
(lp1564
F30
asg31
(lp1565
F2
assg44
Nssg45
I2
sg20
I84
sg46
Nsg47
I0
sg48
(dp1566
g50
g51
sg52
F0.28382099999999999
ssg53
Nsg54
Nsa(dp1567
g13
g14
(S'\x07\xde\x05\r\x0b11\nP\xa0'
tRp1568
sg16
g14
(S'\x07\xde\x05\r\x0b1\x07\x03K\xc0'
tRp1569
sg18
(dp1570
g20
I85
sg21
(dp1571
g23
(lp1572
I85
asg25
(lp1573
I85
asg27
(lp1574
I85
asg29
(lp1575
I85
asg31
(lp1576
I85
assg33
(g34
g35
tp1577
sg37
(dp1578
g23
(lp1579
F0.82457760642650979
asg25
(lp1580
F5
asg27
(lp1581
F4
asg29
(lp1582
F57
asg31
(lp1583
F4
assg44
Nssg45
I2
sg20
I85
sg46
Nsg47
I0
sg48
(dp1584
g50
g51
sg52
F0.290686
ssg53
Nsg54
Nsa(dp1585
g13
g14
(S'\x07\xde\x05\r\x0b2&\x05\x95\xb0'
tRp1586
sg16
g14
(S'\x07\xde\x05\r\x0b11\n\x83h'
tRp1587
sg18
(dp1588
g20
I86
sg21
(dp1589
g23
(lp1590
I86
asg25
(lp1591
I86
asg27
(lp1592
I86
asg29
(lp1593
I86
asg31
(lp1594
I86
assg33
(g34
g35
tp1595
sg37
(dp1596
g23
(lp1597
F0.77713350884778909
asg25
(lp1598
F9
asg27
(lp1599
F82
asg29
(lp1600
F75
asg31
(lp1601
F5
assg44
Nssg45
I2
sg20
I86
sg46
Nsg47
I0
sg48
(dp1602
g50
g51
sg52
F0.29426600000000003
ssg53
Nsg54
Nsa(dp1603
g13
g14
(S'\x07\xde\x05\r\x0b3\x06\x0c\xdc\xf8'
tRp1604
sg16
g14
(S'\x07\xde\x05\r\x0b2&\x05\xcc`'
tRp1605
sg18
(dp1606
g20
I87
sg21
(dp1607
g23
(lp1608
I87
asg25
(lp1609
I87
asg27
(lp1610
I87
asg29
(lp1611
I87
asg31
(lp1612
I87
assg33
(g34
g35
tp1613
sg37
(dp1614
g23
(lp1615
F0.65657884352782847
asg25
(lp1616
F10
asg27
(lp1617
F2
asg29
(lp1618
F36
asg31
(lp1619
F1
assg44
Nssg45
I2
sg20
I87
sg46
Nsg47
I0
sg48
(dp1620
g50
g51
sg52
F0.28773300000000002
ssg53
Nsg54
Nsa(dp1621
g13
g14
(S'\x07\xde\x05\r\x0b3-\x00}\x00'
tRp1622
sg16
g14
(S'\x07\xde\x05\r\x0b3\x06\r\x0f\xc0'
tRp1623
sg18
(dp1624
g20
I88
sg21
(dp1625
g23
(lp1626
I88
asg25
(lp1627
I88
asg27
(lp1628
I88
asg29
(lp1629
I88
asg31
(lp1630
I88
assg33
(g34
g35
tp1631
sg37
(dp1632
g23
(lp1633
F0.32653626479752079
asg25
(lp1634
F10
asg27
(lp1635
F73
asg29
(lp1636
F83
asg31
(lp1637
F3
assg44
Nssg45
I2
sg20
I88
sg46
Nsg47
I0
sg48
(dp1638
g50
g51
sg52
F0.290412
ssg53
Nsg54
Nsa(dp1639
g13
g14
(S'\x07\xde\x05\r\x0b4\x02\x07f\x88'
tRp1640
sg16
g14
(S'\x07\xde\x05\r\x0b3-\x00\xaf\xc8'
tRp1641
sg18
(dp1642
g20
I89
sg21
(dp1643
g23
(lp1644
I89
asg25
(lp1645
I89
asg27
(lp1646
I89
asg29
(lp1647
I89
asg31
(lp1648
I89
assg33
(g34
g35
tp1649
sg37
(dp1650
g23
(lp1651
F0.8657606242553586
asg25
(lp1652
F2
asg27
(lp1653
F28
asg29
(lp1654
F2
asg31
(lp1655
F1
assg44
Nssg45
I2
sg20
I89
sg46
Nsg47
I0
sg48
(dp1656
g50
g51
sg52
F0.32123200000000002
ssg53
Nsg54
Nsa(dp1657
g13
g14
(S'\x07\xde\x05\r\x0b4\x12\x03\xfb\x88'
tRp1658
sg16
g14
(S'\x07\xde\x05\r\x0b4\x02\x07\x9d8'
tRp1659
sg18
(dp1660
g20
I90
sg21
(dp1661
g23
(lp1662
I90
asg25
(lp1663
I90
asg27
(lp1664
I90
asg29
(lp1665
I90
asg31
(lp1666
I90
assg33
(g34
g35
tp1667
sg37
(dp1668
g23
(lp1669
F0.25138157999920291
asg25
(lp1670
F5
asg27
(lp1671
F92
asg29
(lp1672
F9
asg31
(lp1673
F3
assg44
Nssg45
I2
sg20
I90
sg46
Nsg47
I0
sg48
(dp1674
g50
g51
sg52
F0.30255700000000002
ssg53
Nsg54
Nsa(dp1675
g13
g14
(S'\x07\xde\x05\r\x0b4#\x03\xa9\x80'
tRp1676
sg16
g14
(S'\x07\xde\x05\r\x0b4\x12\x04.P'
tRp1677
sg18
(dp1678
g20
I91
sg21
(dp1679
g23
(lp1680
I91
asg25
(lp1681
I91
asg27
(lp1682
I91
asg29
(lp1683
I91
asg31
(lp1684
I91
assg33
(g34
g35
tp1685
sg37
(dp1686
g23
(lp1687
F0.25394132187453133
asg25
(lp1688
F2
asg27
(lp1689
F76
asg29
(lp1690
F28
asg31
(lp1691
F8
assg44
Nssg45
I2
sg20
I91
sg46
Nsg47
I0
sg48
(dp1692
g50
g51
sg52
F0.30838399999999999
ssg53
Nsg54
Nsa(dp1693
g13
g14
(S'\x07\xde\x05\r\x0b4;\x061\xf0'
tRp1694
sg16
g14
(S'\x07\xde\x05\r\x0b4#\x03\xd8`'
tRp1695
sg18
(dp1696
g20
I92
sg21
(dp1697
g23
(lp1698
I92
asg25
(lp1699
I92
asg27
(lp1700
I92
asg29
(lp1701
I92
asg31
(lp1702
I92
assg33
(g34
g35
tp1703
sg37
(dp1704
g23
(lp1705
F0.21102736393838956
asg25
(lp1706
F6
asg27
(lp1707
F51
asg29
(lp1708
F63
asg31
(lp1709
F5
assg44
Nssg45
I2
sg20
I92
sg46
Nsg47
I0
sg48
(dp1710
g50
g51
sg52
F0.304558
ssg53
Nsg54
Nsa(dp1711
g13
g14
(S"\x07\xde\x05\r\x0b5'\x0c\xc1\xa0"
tRp1712
sg16
g14
(S'\x07\xde\x05\r\x0b4;\x06d\xb8'
tRp1713
sg18
(dp1714
g20
I93
sg21
(dp1715
g23
(lp1716
I93
asg25
(lp1717
I93
asg27
(lp1718
I93
asg29
(lp1719
I93
asg31
(lp1720
I93
assg33
(g34
g35
tp1721
sg37
(dp1722
g23
(lp1723
F0.66834906841544572
asg25
(lp1724
F5
asg27
(lp1725
F54
asg29
(lp1726
F70
asg31
(lp1727
F6
assg44
Nssg45
I2
sg20
I93
sg46
Nsg47
I0
sg48
(dp1728
g50
g51
sg52
F0.29544900000000002
ssg53
Nsg54
Nsa(dp1729
g13
g14
(S'\x07\xde\x05\r\x0b6\x00\x08"\x08'
tRp1730
sg16
g14
(S"\x07\xde\x05\r\x0b5'\x0c\xfc8"
tRp1731
sg18
(dp1732
g20
I94
sg21
(dp1733
g23
(lp1734
I94
asg25
(lp1735
I94
asg27
(lp1736
I94
asg29
(lp1737
I94
asg31
(lp1738
I94
assg33
(g34
g35
tp1739
sg37
(dp1740
g23
(lp1741
F0.28398067628573398
asg25
(lp1742
F2
asg27
(lp1743
F21
asg29
(lp1744
F17
asg31
(lp1745
F6
assg44
Nssg45
I2
sg20
I94
sg46
Nsg47
I0
sg48
(dp1746
g50
g51
sg52
F0.30955300000000002
ssg53
Nsg54
Nsa(dp1747
g13
g14
(S'\x07\xde\x05\r\x0b6\x11\x08\x83\xb0'
tRp1748
sg16
g14
(S'\x07\xde\x05\r\x0b6\x00\x08\xc6\x18'
tRp1749
sg18
(dp1750
g20
I95
sg21
(dp1751
g23
(lp1752
I95
asg25
(lp1753
I95
asg27
(lp1754
I95
asg29
(lp1755
I95
asg31
(lp1756
I95
assg33
(g34
g35
tp1757
sg37
(dp1758
g23
(lp1759
F0.35229345085175456
asg25
(lp1760
F3
asg27
(lp1761
F55
asg29
(lp1762
F5
asg31
(lp1763
F3
assg44
Nssg45
I2
sg20
I95
sg46
Nsg47
I0
sg48
(dp1764
g50
g51
sg52
F0.30540200000000001
ssg53
Nsg54
Nsa(dp1765
g13
g14
(S'\x07\xde\x05\r\x0b67\x0e!0'
tRp1766
sg16
g14
(S'\x07\xde\x05\r\x0b6\x11\x08\xb6x'
tRp1767
sg18
(dp1768
g20
I96
sg21
(dp1769
g23
(lp1770
I96
asg25
(lp1771
I96
asg27
(lp1772
I96
asg29
(lp1773
I96
asg31
(lp1774
I96
assg33
(g34
g35
tp1775
sg37
(dp1776
g23
(lp1777
F0.55755327577492464
asg25
(lp1778
F4
asg27
(lp1779
F53
asg29
(lp1780
F70
asg31
(lp1781
F5
assg44
Nssg45
I2
sg20
I96
sg46
Nsg47
I0
sg48
(dp1782
g50
g51
sg52
F0.29571900000000001
ssg53
Nsg54
Nsa(dp1783
g13
g14
(S'\x07\xde\x05\r\x0b7!\ty\xc8'
tRp1784
sg16
g14
(S'\x07\xde\x05\r\x0b67\x0eW\xe0'
tRp1785
sg18
(dp1786
g20
I97
sg21
(dp1787
g23
(lp1788
I97
asg25
(lp1789
I97
asg27
(lp1790
I97
asg29
(lp1791
I97
asg31
(lp1792
I97
assg33
(g34
g35
tp1793
sg37
(dp1794
g23
(lp1795
F0.58546944016202274
asg25
(lp1796
F4
asg27
(lp1797
F35
asg29
(lp1798
F70
asg31
(lp1799
F5
assg44
Nssg45
I2
sg20
I97
sg46
Nsg47
I0
sg48
(dp1800
g50
g51
sg52
F0.29081499999999999
ssg53
Nsg54
Nsa(dp1801
g13
g14
(S'\x07\xde\x05\r\x0b72\n\xc1\xe8'
tRp1802
sg16
g14
(S'\x07\xde\x05\r\x0b7!\t\xac\x90'
tRp1803
sg18
(dp1804
g20
I98
sg21
(dp1805
g23
(lp1806
I98
asg25
(lp1807
I98
asg27
(lp1808
I98
asg29
(lp1809
I98
asg31
(lp1810
I98
assg33
(g34
g35
tp1811
sg37
(dp1812
g23
(lp1813
F0.23837925710973409
asg25
(lp1814
F7
asg27
(lp1815
F46
asg29
(lp1816
F32
asg31
(lp1817
F7
assg44
Nssg45
I2
sg20
I98
sg46
Nsg47
I0
sg48
(dp1818
g50
g51
sg52
F0.31138100000000002
ssg53
Nsg54
Nsa(dp1819
g13
g14
(S'\x07\xde\x05\r\x0b8&\x06\xb2\xd8'
tRp1820
sg16
g14
(S'\x07\xde\x05\r\x0b72\n\xfc\x80'
tRp1821
sg18
(dp1822
g20
I99
sg21
(dp1823
g23
(lp1824
I99
asg25
(lp1825
I99
asg27
(lp1826
I99
asg29
(lp1827
I99
asg31
(lp1828
I99
assg33
(g34
g35
tp1829
sg37
(dp1830
g23
(lp1831
F0.95470482856875238
asg25
(lp1832
F2
asg27
(lp1833
F20
asg29
(lp1834
F75
asg31
(lp1835
F10
assg44
Nssg45
I2
sg20
I99
sg46
Nsg47
I0
sg48
(dp1836
g50
g51
sg52
F0.30901499999999998
ssg53
Nsg54
Nsa(dp1837
g13
g14
(S'\x07\xde\x05\r\x0b86\x01o0'
tRp1838
sg16
g14
(S'\x07\xde\x05\r\x0b8&\x06\xf1X'
tRp1839
sg18
(dp1840
g20
I100
sg21
(dp1841
g23
(lp1842
I100
asg25
(lp1843
I100
asg27
(lp1844
I100
asg29
(lp1845
I100
asg31
(lp1846
I100
assg33
(g34
g35
tp1847
sg37
(dp1848
g23
(lp1849
F0.53999234475539581
asg25
(lp1850
F2
asg27
(lp1851
F85
asg29
(lp1852
F3
asg31
(lp1853
F4
assg44
Nssg45
I2
sg20
I100
sg46
Nsg47
I0
sg48
(dp1854
g50
g51
sg52
F0.30843300000000001
ssg53
Nsg54
Nsa(dp1855
g13
g14
(S'\x07\xde\x05\r\x0b9\x1f\x01w\x00'
tRp1856
sg16
g14
(S'\x07\xde\x05\r\x0b86\x01\xa9\xc8'
tRp1857
sg18
(dp1858
g20
I101
sg21
(dp1859
g23
(lp1860
I101
asg25
(lp1861
I101
asg27
(lp1862
I101
asg29
(lp1863
I101
asg31
(lp1864
I101
assg33
(g34
g35
tp1865
sg37
(dp1866
g23
(lp1867
F0.95295407270852694
asg25
(lp1868
F9
asg27
(lp1869
F93
asg29
(lp1870
F44
asg31
(lp1871
F3
assg44
Nssg45
I2
sg20
I101
sg46
Nsg47
I0
sg48
(dp1872
g50
g51
sg52
F0.29345399999999999
ssg53
Nsg54
Nsa(dp1873
g13
g14
(S'\x07\xde\x05\r\x0b:\x0b\x0b\xcfp'
tRp1874
sg16
g14
(S'\x07\xde\x05\r\x0b9\x1f\x01\xb1\x98'
tRp1875
sg18
(dp1876
g20
I102
sg21
(dp1877
g23
(lp1878
I102
asg25
(lp1879
I102
asg27
(lp1880
I102
asg29
(lp1881
I102
asg31
(lp1882
I102
assg33
(g34
g35
tp1883
sg37
(dp1884
g23
(lp1885
F0.76990533919332349
asg25
(lp1886
F7
asg27
(lp1887
F35
asg29
(lp1888
F64
asg31
(lp1889
F7
assg44
Nssg45
I2
sg20
I102
sg46
Nsg47
I0
sg48
(dp1890
g50
g51
sg52
F0.29731000000000002
ssg53
Nsg54
Nsa(dp1891
g13
g14
(S'\x07\xde\x05\r\x0b:0\r\x9c`'
tRp1892
sg16
g14
(S'\x07\xde\x05\r\x0b:\x0b\x0c\n\x08'
tRp1893
sg18
(dp1894
g20
I103
sg21
(dp1895
g23
(lp1896
I103
asg25
(lp1897
I103
asg27
(lp1898
I103
asg29
(lp1899
I103
asg31
(lp1900
I103
assg33
(g34
g35
tp1901
sg37
(dp1902
g23
(lp1903
F0.92507579527916428
asg25
(lp1904
F4
asg27
(lp1905
F68
asg29
(lp1906
F43
asg31
(lp1907
F7
assg44
Nssg45
I2
sg20
I103
sg46
Nsg47
I0
sg48
(dp1908
g50
g51
sg52
F0.30293999999999999
ssg53
Nsg54
Nsa(dp1909
g13
g14
(S'\x07\xde\x05\r\x0b;+\x06\x0e\xc8'
tRp1910
sg16
g14
(S'\x07\xde\x05\r\x0b:0\r\xd3\x10'
tRp1911
sg18
(dp1912
g20
I104
sg21
(dp1913
g23
(lp1914
I104
asg25
(lp1915
I104
asg27
(lp1916
I104
asg29
(lp1917
I104
asg31
(lp1918
I104
assg33
(g34
g35
tp1919
sg37
(dp1920
g23
(lp1921
F0.6693677311214189
asg25
(lp1922
F6
asg27
(lp1923
F46
asg29
(lp1924
F94
asg31
(lp1925
F6
assg44
Nssg45
I2
sg20
I104
sg46
Nsg47
I0
sg48
(dp1926
g50
g51
sg52
F0.29536600000000002
ssg53
Nsg54
Nsa(dp1927
g13
g14
(S'\x07\xde\x05\r\x0c\x00\x05\x0e_\xb0'
tRp1928
sg16
g14
(S'\x07\xde\x05\r\x0b;+\x06Ex'
tRp1929
sg18
(dp1930
g20
I105
sg21
(dp1931
g23
(lp1932
I105
asg25
(lp1933
I105
asg27
(lp1934
I105
asg29
(lp1935
I105
asg31
(lp1936
I105
assg33
(g34
g35
tp1937
sg37
(dp1938
g23
(lp1939
F0.43899101730789036
asg25
(lp1940
F3
asg27
(lp1941
F96
asg29
(lp1942
F32
asg31
(lp1943
F5
assg44
Nssg45
I2
sg20
I105
sg46
Nsg47
I0
sg48
(dp1944
g50
g51
sg52
F0.29416700000000001
ssg53
Nsg54
Nsa(dp1945
g13
g14
(S'\x07\xde\x05\r\x0c\x00+\x05_\x00'
tRp1946
sg16
g14
(S'\x07\xde\x05\r\x0c\x00\x05\x0e\x9aH'
tRp1947
sg18
(dp1948
g20
I106
sg21
(dp1949
g23
(lp1950
I106
asg25
(lp1951
I106
asg27
(lp1952
I106
asg29
(lp1953
I106
asg31
(lp1954
I106
assg33
(g34
g35
tp1955
sg37
(dp1956
g23
(lp1957
F0.48446055673864175
asg25
(lp1958
F1
asg27
(lp1959
F54
asg29
(lp1960
F80
asg31
(lp1961
F7
assg44
Nssg45
I2
sg20
I106
sg46
Nsg47
I0
sg48
(dp1962
g50
g51
sg52
F0.29931400000000002
ssg53
Nsg54
Nsa(dp1963
g13
g14
(S'\x07\xde\x05\r\x0c\x01\x13\x08\x9f\x08'
tRp1964
sg16
g14
(S'\x07\xde\x05\r\x0c\x00+\x05\x99\x98'
tRp1965
sg18
(dp1966
g20
I107
sg21
(dp1967
g23
(lp1968
I107
asg25
(lp1969
I107
asg27
(lp1970
I107
asg29
(lp1971
I107
asg31
(lp1972
I107
assg33
(g34
g35
tp1973
sg37
(dp1974
g23
(lp1975
F0.34326348328075107
asg25
(lp1976
F2
asg27
(lp1977
F58
asg29
(lp1978
F90
asg31
(lp1979
F7
assg44
Nssg45
I2
sg20
I107
sg46
Nsg47
I0
sg48
(dp1980
g50
g51
sg52
F0.3024
ssg53
Nsg54
Nsa(dp1981
g13
g14
(S'\x07\xde\x05\r\x0c\x02\x10\x03\x05p'
tRp1982
sg16
g14
(S'\x07\xde\x05\r\x0c\x01\x13\x08\xe1p'
tRp1983
sg18
(dp1984
g20
I108
sg21
(dp1985
g23
(lp1986
I108
asg25
(lp1987
I108
asg27
(lp1988
I108
asg29
(lp1989
I108
asg31
(lp1990
I108
assg33
(g34
g35
tp1991
sg37
(dp1992
g23
(lp1993
F0.9189064983497196
asg25
(lp1994
F5
asg27
(lp1995
F97
asg29
(lp1996
F88
asg31
(lp1997
F7
assg44
Nssg45
I2
sg20
I108
sg46
Nsg47
I0
sg48
(dp1998
g50
g51
sg52
F0.302481
ssg53
Nsg54
Nsa(dp1999
g13
g14
(S'\x07\xde\x05\r\x0c\x02;\nH\xd0'
tRp2000
sg16
g14
(S'\x07\xde\x05\r\x0c\x02\x10\x03< '
tRp2001
sg18
(dp2002
g20
I109
sg21
(dp2003
g23
(lp2004
I109
asg25
(lp2005
I109
asg27
(lp2006
I109
asg29
(lp2007
I109
asg31
(lp2008
I109
assg33
(g34
g35
tp2009
sg37
(dp2010
g23
(lp2011
F0.38707595729072297
asg25
(lp2012
F10
asg27
(lp2013
F62
asg29
(lp2014
F93
asg31
(lp2015
F5
assg44
Nssg45
I2
sg20
I109
sg46
Nsg47
I0
sg48
(dp2016
g50
g51
sg52
F0.296018
ssg53
Nsg54
Nsa(dp2017
g13
g14
(S'\x07\xde\x05\r\x0c\x03(\x08{\xe0'
tRp2018
sg16
g14
(S'\x07\xde\x05\r\x0c\x02;\n\x87P'
tRp2019
sg18
(dp2020
g20
I110
sg21
(dp2021
g23
(lp2022
I110
asg25
(lp2023
I110
asg27
(lp2024
I110
asg29
(lp2025
I110
asg31
(lp2026
I110
assg33
(g34
g35
tp2027
sg37
(dp2028
g23
(lp2029
F0.69477000433390168
asg25
(lp2030
F8
asg27
(lp2031
F56
asg29
(lp2032
F70
asg31
(lp2033
F9
assg44
Nssg45
I2
sg20
I110
sg46
Nsg47
I0
sg48
(dp2034
g50
g51
sg52
F0.30345
ssg53
Nsg54
Nsa(dp2035
g13
g14
(S'\x07\xde\x05\r\x0c\x03;\x01\x9e\x10'
tRp2036
sg16
g14
(S'\x07\xde\x05\r\x0c\x03(\x08\xb6x'
tRp2037
sg18
(dp2038
g20
I111
sg21
(dp2039
g23
(lp2040
I111
asg25
(lp2041
I111
asg27
(lp2042
I111
asg29
(lp2043
I111
asg31
(lp2044
I111
assg33
(g34
g35
tp2045
sg37
(dp2046
g23
(lp2047
F0.60725237629332751
asg25
(lp2048
F2
asg27
(lp2049
F21
asg29
(lp2050
F2
asg31
(lp2051
F8
assg44
Nssg45
I2
sg20
I111
sg46
Nsg47
I0
sg48
(dp2052
g50
g51
sg52
F0.335781
ssg53
Nsg54
Nsa(dp2053
g13
g14
(S'\x07\xde\x05\r\x0c\x04\x15\x03z\xa0'
tRp2054
sg16
g14
(S'\x07\xde\x05\r\x0c\x03;\x01\xd8\xa8'
tRp2055
sg18
(dp2056
g20
I112
sg21
(dp2057
g23
(lp2058
I112
asg25
(lp2059
I112
asg27
(lp2060
I112
asg29
(lp2061
I112
asg31
(lp2062
I112
assg33
(g34
g35
tp2063
sg37
(dp2064
g23
(lp2065
F0.75561484545245672
asg25
(lp2066
F6
asg27
(lp2067
F10
asg29
(lp2068
F16
asg31
(lp2069
F7
assg44
Nssg45
I2
sg20
I112
sg46
Nsg47
I0
sg48
(dp2070
g50
g51
sg52
F0.303616
ssg53
Nsg54
Nsa(dp2071
g13
g14
(S'\x07\xde\x05\r\x0c\x04%\x03\xef\xd0'
tRp2072
sg16
g14
(S'\x07\xde\x05\r\x0c\x04\x15\x03\xb1P'
tRp2073
sg18
(dp2074
g20
I113
sg21
(dp2075
g23
(lp2076
I113
asg25
(lp2077
I113
asg27
(lp2078
I113
asg29
(lp2079
I113
asg31
(lp2080
I113
assg33
(g34
g35
tp2081
sg37
(dp2082
g23
(lp2083
F0.28228937995388226
asg25
(lp2084
F2
asg27
(lp2085
F46
asg29
(lp2086
F9
asg31
(lp2087
F9
assg44
Nssg45
I2
sg20
I113
sg46
Nsg47
I0
sg48
(dp2088
g50
g51
sg52
F0.311276
ssg53
Nsg54
Nsa(dp2089
g13
g14
(S'\x07\xde\x05\r\x0c\x05\x05\x0b\xcfp'
tRp2090
sg16
g14
(S'\x07\xde\x05\r\x0c\x04%\x04*h'
tRp2091
sg18
(dp2092
g20
I114
sg21
(dp2093
g23
(lp2094
I114
asg25
(lp2095
I114
asg27
(lp2096
I114
asg29
(lp2097
I114
asg31
(lp2098
I114
assg33
(g34
g35
tp2099
sg37
(dp2100
g23
(lp2101
F0.56750584068735976
asg25
(lp2102
F5
asg27
(lp2103
F86
asg29
(lp2104
F47
asg31
(lp2105
F4
assg44
Nssg45
I2
sg20
I114
sg46
Nsg47
I0
sg48
(dp2106
g50
g51
sg52
F0.28734999999999999
ssg53
Nsg54
Nsa(dp2107
g13
g14
(S'\x07\xde\x05\r\x0c\x051\tJ\xe8'
tRp2108
sg16
g14
(S'\x07\xde\x05\r\x0c\x05\x05\x0c\n\x08'
tRp2109
sg18
(dp2110
g20
I115
sg21
(dp2111
g23
(lp2112
I115
asg25
(lp2113
I115
asg27
(lp2114
I115
asg29
(lp2115
I115
asg31
(lp2116
I115
assg33
(g34
g35
tp2117
sg37
(dp2118
g23
(lp2119
F0.36105794487913201
asg25
(lp2120
F2
asg27
(lp2121
F47
asg29
(lp2122
F81
asg31
(lp2123
F3
assg44
Nssg45
I2
sg20
I115
sg46
Nsg47
I0
sg48
(dp2124
g50
g51
sg52
F0.28564000000000001
ssg53
Nsg54
Nsa(dp2125
g13
g14
(S'\x07\xde\x05\r\x0c\x06\x0c\x02\x03\xa0'
tRp2126
sg16
g14
(S'\x07\xde\x05\r\x0c\x051\t\x85\x80'
tRp2127
sg18
(dp2128
g20
I116
sg21
(dp2129
g23
(lp2130
I116
asg25
(lp2131
I116
asg27
(lp2132
I116
asg29
(lp2133
I116
asg31
(lp2134
I116
assg33
(g34
g35
tp2135
sg37
(dp2136
g23
(lp2137
F0.6228946557699645
asg25
(lp2138
F7
asg27
(lp2139
F33
asg29
(lp2140
F35
asg31
(lp2141
F8
assg44
Nssg45
I2
sg20
I116
sg46
Nsg47
I0
sg48
(dp2142
g50
g51
sg52
F0.29971999999999999
ssg53
Nsg54
Nsa(dp2143
g13
g14
(S'\x07\xde\x05\r\x0c\x06\x1c\x04\x0b('
tRp2144
sg16
g14
(S'\x07\xde\x05\r\x0c\x06\x0c\x02:P'
tRp2145
sg18
(dp2146
g20
I117
sg21
(dp2147
g23
(lp2148
I117
asg25
(lp2149
I117
asg27
(lp2150
I117
asg29
(lp2151
I117
asg31
(lp2152
I117
assg33
(g34
g35
tp2153
sg37
(dp2154
g23
(lp2155
F0.24278949260352367
asg25
(lp2156
F7
asg27
(lp2157
F24
asg29
(lp2158
F14
asg31
(lp2159
F4
assg44
Nssg45
I2
sg20
I117
sg46
Nsg47
I0
sg48
(dp2160
g50
g51
sg52
F0.30633500000000002
ssg53
Nsg54
Nsa(dp2161
g13
g14
(S'\x07\xde\x05\r\x0c\x07\x02\x07\xf3('
tRp2162
sg16
g14
(S'\x07\xde\x05\r\x0c\x06\x1c\x04A\xd8'
tRp2163
sg18
(dp2164
g20
I118
sg21
(dp2165
g23
(lp2166
I118
asg25
(lp2167
I118
asg27
(lp2168
I118
asg29
(lp2169
I118
asg31
(lp2170
I118
assg33
(g34
g35
tp2171
sg37
(dp2172
g23
(lp2173
F0.49176687547036024
asg25
(lp2174
F8
asg27
(lp2175
F69
asg29
(lp2176
F74
asg31
(lp2177
F10
assg44
Nssg45
I2
sg20
I118
sg46
Nsg47
I0
sg48
(dp2178
g50
g51
sg52
F0.30458299999999999
ssg53
Nsg54
Nsa(dp2179
g13
g14
(S'\x07\xde\x05\r\x0c\x08\x00\x01\xb9h'
tRp2180
sg16
g14
(S'\x07\xde\x05\r\x0c\x07\x02\x08-\xc0'
tRp2181
sg18
(dp2182
g20
I119
sg21
(dp2183
g23
(lp2184
I119
asg25
(lp2185
I119
asg27
(lp2186
I119
asg29
(lp2187
I119
asg31
(lp2188
I119
assg33
(g34
g35
tp2189
sg37
(dp2190
g23
(lp2191
F0.96175324143688568
asg25
(lp2192
F3
asg27
(lp2193
F79
asg29
(lp2194
F90
asg31
(lp2195
F9
assg44
Nssg45
I2
sg20
I119
sg46
Nsg47
I0
sg48
(dp2196
g50
g51
sg52
F0.308618
ssg53
Nsg54
Nsa(dp2197
g13
g14
(S'\x07\xde\x05\r\x0c\x08\x10\x04\x8f\xf8'
tRp2198
sg16
g14
(S'\x07\xde\x05\r\x0c\x08\x00\x01\xf4\x00'
tRp2199
sg18
(dp2200
g20
I120
sg21
(dp2201
g23
(lp2202
I120
asg25
(lp2203
I120
asg27
(lp2204
I120
asg29
(lp2205
I120
asg31
(lp2206
I120
assg33
(g34
g35
tp2207
sg37
(dp2208
g23
(lp2209
F0.38677954267236769
asg25
(lp2210
F4
asg27
(lp2211
F65
asg29
(lp2212
F20
asg31
(lp2213
F10
assg44
Nssg45
I2
sg20
I120
sg46
Nsg47
I0
sg48
(dp2214
g50
g51
sg52
F0.30917499999999998
ssg53
Nsg54
Nsa(dp2215
g13
g14
(S'\x07\xde\x05\r\x0c\t\t\x03\r@'
tRp2216
sg16
g14
(S'\x07\xde\x05\r\x0c\x08\x10\x04\xca\x90'
tRp2217
sg18
(dp2218
g20
I121
sg21
(dp2219
g23
(lp2220
I121
asg25
(lp2221
I121
asg27
(lp2222
I121
asg29
(lp2223
I121
asg31
(lp2224
I121
assg33
(g34
g35
tp2225
sg37
(dp2226
g23
(lp2227
F0.65740847164616811
asg25
(lp2228
F8
asg27
(lp2229
F26
asg29
(lp2230
F98
asg31
(lp2231
F9
assg44
Nssg45
I2
sg20
I121
sg46
Nsg47
I0
sg48
(dp2232
g50
g51
sg52
F0.30467499999999997
ssg53
Nsg54
Nsa(dp2233
g13
g14
(S'\x07\xde\x05\r\x0c\t5\rJX'
tRp2234
sg16
g14
(S'\x07\xde\x05\r\x0c\t\t\x03K\xc0'
tRp2235
sg18
(dp2236
g20
I122
sg21
(dp2237
g23
(lp2238
I122
asg25
(lp2239
I122
asg27
(lp2240
I122
asg29
(lp2241
I122
asg31
(lp2242
I122
assg33
(g34
g35
tp2243
sg37
(dp2244
g23
(lp2245
F0.57687382670089216
asg25
(lp2246
F6
asg27
(lp2247
F98
asg29
(lp2248
F73
asg31
(lp2249
F3
assg44
Nssg45
I2
sg20
I122
sg46
Nsg47
I0
sg48
(dp2250
g50
g51
sg52
F0.28410400000000002
ssg53
Nsg54
Nsa(dp2251
g13
g14
(S'\x07\xde\x05\r\x0c\n*\x07\xa1 '
tRp2252
sg16
g14
(S'\x07\xde\x05\r\x0c\t5\r\x88\xd8'
tRp2253
sg18
(dp2254
g20
I123
sg21
(dp2255
g23
(lp2256
I123
asg25
(lp2257
I123
asg27
(lp2258
I123
asg29
(lp2259
I123
asg31
(lp2260
I123
assg33
(g34
g35
tp2261
sg37
(dp2262
g23
(lp2263
F0.4889445853018799
asg25
(lp2264
F5
asg27
(lp2265
F27
asg29
(lp2266
F85
asg31
(lp2267
F2
assg44
Nssg45
I2
sg20
I123
sg46
Nsg47
I0
sg48
(dp2268
g50
g51
sg52
F0.28085199999999999
ssg53
Nsg54
Nsa(dp2269
g13
g14
(S'\x07\xde\x05\r\x0c\n:\t\xc0\x18'
tRp2270
sg16
g14
(S'\x07\xde\x05\r\x0c\n*\x07\xdf\xa0'
tRp2271
sg18
(dp2272
g20
I124
sg21
(dp2273
g23
(lp2274
I124
asg25
(lp2275
I124
asg27
(lp2276
I124
asg29
(lp2277
I124
asg31
(lp2278
I124
assg33
(g34
g35
tp2279
sg37
(dp2280
g23
(lp2281
F0.19717066396735519
asg25
(lp2282
F1
asg27
(lp2283
F93
asg29
(lp2284
F15
asg31
(lp2285
F5
assg44
Nssg45
I2
sg20
I124
sg46
Nsg47
I0
sg48
(dp2286
g50
g51
sg52
F0.30541000000000001
ssg53
Nsg54
Nsa(dp2287
g13
g14
(S'\x07\xde\x05\r\x0c\x0b+\x08\xca\x00'
tRp2288
sg16
g14
(S'\x07\xde\x05\r\x0c\n:\t\xfe\x98'
tRp2289
sg18
(dp2290
g20
I125
sg21
(dp2291
g23
(lp2292
I125
asg25
(lp2293
I125
asg27
(lp2294
I125
asg29
(lp2295
I125
asg31
(lp2296
I125
assg33
(g34
g35
tp2297
sg37
(dp2298
g23
(lp2299
F0.83271812266022749
asg25
(lp2300
F1
asg27
(lp2301
F23
asg29
(lp2302
F59
asg31
(lp2303
F2
assg44
Nssg45
I2
sg20
I125
sg46
Nsg47
I0
sg48
(dp2304
g50
g51
sg52
F0.28559400000000001
ssg53
Nsg54
Nsa(dp2305
g13
g14
(S'\x07\xde\x05\r\x0c\x0b;\x08I\x18'
tRp2306
sg16
g14
(S'\x07\xde\x05\r\x0c\x0b+\t\x148'
tRp2307
sg18
(dp2308
g20
I126
sg21
(dp2309
g23
(lp2310
I126
asg25
(lp2311
I126
asg27
(lp2312
I126
asg29
(lp2313
I126
asg31
(lp2314
I126
assg33
(g34
g35
tp2315
sg37
(dp2316
g23
(lp2317
F0.67458308426747604
asg25
(lp2318
F9
asg27
(lp2319
F91
asg29
(lp2320
F7
asg31
(lp2321
F1
assg44
Nssg45
I2
sg20
I126
sg46
Nsg47
I0
sg48
(dp2322
g50
g51
sg52
F0.29435299999999998
ssg53
Nsg54
Nsa(dp2323
g13
g14
(S'\x07\xde\x05\r\x0c\x0c\x16\x03< '
tRp2324
sg16
g14
(S'\x07\xde\x05\r\x0c\x0b;\x08\x7f\xc8'
tRp2325
sg18
(dp2326
g20
I127
sg21
(dp2327
g23
(lp2328
I127
asg25
(lp2329
I127
asg27
(lp2330
I127
asg29
(lp2331
I127
asg31
(lp2332
I127
assg33
(g34
g35
tp2333
sg37
(dp2334
g23
(lp2335
F0.90338216275712035
asg25
(lp2336
F8
asg27
(lp2337
F36
asg29
(lp2338
F20
asg31
(lp2339
F2
assg44
Nssg45
I2
sg20
I127
sg46
Nsg47
I0
sg48
(dp2340
g50
g51
sg52
F0.29267500000000002
ssg53
Nsg54
Nsa(dp2341
g13
g14
(S'\x07\xde\x05\r\x0c\r\x1b\x0b\x13\xf0'
tRp2342
sg16
g14
(S'\x07\xde\x05\r\x0c\x0c\x16\x03v\xb8'
tRp2343
sg18
(dp2344
g20
I128
sg21
(dp2345
g23
(lp2346
I128
asg25
(lp2347
I128
asg27
(lp2348
I128
asg29
(lp2349
I128
asg31
(lp2350
I128
assg33
(g34
g35
tp2351
sg37
(dp2352
g23
(lp2353
F0.92932872832482227
asg25
(lp2354
F7
asg27
(lp2355
F83
asg29
(lp2356
F97
asg31
(lp2357
F4
assg44
Nssg45
I2
sg20
I128
sg46
Nsg47
I0
sg48
(dp2358
g50
g51
sg52
F0.29275000000000001
ssg53
Nsg54
Nsa(dp2359
g13
g14
(S'\x07\xde\x05\r\x0c\r1\r\xde\xc8'
tRp2360
sg16
g14
(S'\x07\xde\x05\r\x0c\r\x1b\x0bRp'
tRp2361
sg18
(dp2362
g20
I129
sg21
(dp2363
g23
(lp2364
I129
asg25
(lp2365
I129
asg27
(lp2366
I129
asg29
(lp2367
I129
asg31
(lp2368
I129
assg33
(g34
g35
tp2369
sg37
(dp2370
g23
(lp2371
F0.6402754975535373
asg25
(lp2372
F1
asg27
(lp2373
F38
asg29
(lp2374
F22
asg31
(lp2375
F9
assg44
Nssg45
I2
sg20
I129
sg46
Nsg47
I0
sg48
(dp2376
g50
g51
sg52
F0.30567299999999997
ssg53
Nsg54
Nsa(dp2377
g13
g14
(S'\x07\xde\x05\r\x0c\x0e%\x0b\xbb\xe8'
tRp2378
sg16
g14
(S'\x07\xde\x05\r\x0c\r1\x0e!0'
tRp2379
sg18
(dp2380
g20
I130
sg21
(dp2381
g23
(lp2382
I130
asg25
(lp2383
I130
asg27
(lp2384
I130
asg29
(lp2385
I130
asg31
(lp2386
I130
assg33
(g34
g35
tp2387
sg37
(dp2388
g23
(lp2389
F0.51334340456716154
asg25
(lp2390
F2
asg27
(lp2391
F38
asg29
(lp2392
F94
asg31
(lp2393
F10
assg44
Nssg45
I2
sg20
I130
sg46
Nsg47
I0
sg48
(dp2394
g50
g51
sg52
F0.30526599999999998
ssg53
Nsg54
Nsa(dp2395
g13
g14
(S'\x07\xde\x05\r\x0c\x0f\x1c\x0b\xa8`'
tRp2396
sg16
g14
(S'\x07\xde\x05\r\x0c\x0e%\x0b\xf6\x80'
tRp2397
sg18
(dp2398
g20
I131
sg21
(dp2399
g23
(lp2400
I131
asg25
(lp2401
I131
asg27
(lp2402
I131
asg29
(lp2403
I131
asg31
(lp2404
I131
assg33
(g34
g35
tp2405
sg37
(dp2406
g23
(lp2407
F0.79745864252165299
asg25
(lp2408
F8
asg27
(lp2409
F88
asg29
(lp2410
F80
asg31
(lp2411
F2
assg44
Nssg45
I2
sg20
I131
sg46
Nsg47
I0
sg48
(dp2412
g50
g51
sg52
F0.29019899999999998
ssg53
Nsg54
Nsa(dp2413
g13
g14
(S'\x07\xde\x05\r\x0c\x10\x08\x06\xb6\xc0'
tRp2414
sg16
g14
(S'\x07\xde\x05\r\x0c\x0f\x1c\x0b\xee\xb0'
tRp2415
sg18
(dp2416
g20
I132
sg21
(dp2417
g23
(lp2418
I132
asg25
(lp2419
I132
asg27
(lp2420
I132
asg29
(lp2421
I132
asg31
(lp2422
I132
assg33
(g34
g35
tp2423
sg37
(dp2424
g23
(lp2425
F0.78633125676153859
asg25
(lp2426
F7
asg27
(lp2427
F100
asg29
(lp2428
F59
asg31
(lp2429
F4
assg44
Nssg45
I2
sg20
I132
sg46
Nsg47
I0
sg48
(dp2430
g50
g51
sg52
F0.28984500000000002
ssg53
Nsg54
Nsa(dp2431
g13
g14
(S'\x07\xde\x05\r\x0c\x10 \ns\xc8'
tRp2432
sg16
g14
(S'\x07\xde\x05\r\x0c\x10\x08\x06\xf5@'
tRp2433
sg18
(dp2434
g20
I133
sg21
(dp2435
g23
(lp2436
I133
asg25
(lp2437
I133
asg27
(lp2438
I133
asg29
(lp2439
I133
asg31
(lp2440
I133
assg33
(g34
g35
tp2441
sg37
(dp2442
g23
(lp2443
F0.1927183386841696
asg25
(lp2444
F3
asg27
(lp2445
F9
asg29
(lp2446
F55
asg31
(lp2447
F2
assg44
Nssg45
I2
sg20
I133
sg46
Nsg47
I0
sg48
(dp2448
g50
g51
sg52
F0.28982599999999997
ssg53
Nsg54
Nsa(dp2449
g13
g14
(S'\x07\xde\x05\r\x0c\x102\n\x16\x08'
tRp2450
sg16
g14
(S'\x07\xde\x05\r\x0c\x10 \n\xb60'
tRp2451
sg18
(dp2452
g20
I134
sg21
(dp2453
g23
(lp2454
I134
asg25
(lp2455
I134
asg27
(lp2456
I134
asg29
(lp2457
I134
asg31
(lp2458
I134
assg33
(g34
g35
tp2459
sg37
(dp2460
g23
(lp2461
F0.10719495368122267
asg25
(lp2462
F3
asg27
(lp2463
F17
asg29
(lp2464
F31
asg31
(lp2465
F1
assg44
Nssg45
I2
sg20
I134
sg46
Nsg47
I0
sg48
(dp2466
g50
g51
sg52
F0.30708000000000002
ssg53
Nsg54
Nsa(dp2467
g13
g14
(S'\x07\xde\x05\r\x0c\x11$\x08\x12h'
tRp2468
sg16
g14
(S'\x07\xde\x05\r\x0c\x102\nP\xa0'
tRp2469
sg18
(dp2470
g20
I135
sg21
(dp2471
g23
(lp2472
I135
asg25
(lp2473
I135
asg27
(lp2474
I135
asg29
(lp2475
I135
asg31
(lp2476
I135
assg33
(g34
g35
tp2477
sg37
(dp2478
g23
(lp2479
F0.81042663872952436
asg25
(lp2480
F5
asg27
(lp2481
F87
asg29
(lp2482
F76
asg31
(lp2483
F6
assg44
Nssg45
I2
sg20
I135
sg46
Nsg47
I0
sg48
(dp2484
g50
g51
sg52
F0.295657
ssg53
Nsg54
Nsa(dp2485
g13
g14
(S'\x07\xde\x05\r\x0c\x12\x00\x03\x8a@'
tRp2486
sg16
g14
(S'\x07\xde\x05\r\x0c\x11$\x08P\xe8'
tRp2487
sg18
(dp2488
g20
I136
sg21
(dp2489
g23
(lp2490
I136
asg25
(lp2491
I136
asg27
(lp2492
I136
asg29
(lp2493
I136
asg31
(lp2494
I136
assg33
(g34
g35
tp2495
sg37
(dp2496
g23
(lp2497
F0.58213565124037514
asg25
(lp2498
F9
asg27
(lp2499
F9
asg29
(lp2500
F27
asg31
(lp2501
F2
assg44
Nssg45
I2
sg20
I136
sg46
Nsg47
I0
sg48
(dp2502
g50
g51
sg52
F0.28853499999999999
ssg53
Nsg54
Nsa(dp2503
g13
g14
(S'\x07\xde\x05\r\x0c\x12\x1a\x002\xc8'
tRp2504
sg16
g14
(S'\x07\xde\x05\r\x0c\x12\x00\x03\xc8\xc0'
tRp2505
sg18
(dp2506
g20
I137
sg21
(dp2507
g23
(lp2508
I137
asg25
(lp2509
I137
asg27
(lp2510
I137
asg29
(lp2511
I137
asg31
(lp2512
I137
assg33
(g34
g35
tp2513
sg37
(dp2514
g23
(lp2515
F0.3292853650640401
asg25
(lp2516
F10
asg27
(lp2517
F11
asg29
(lp2518
F53
asg31
(lp2519
F2
assg44
Nssg45
I2
sg20
I137
sg46
Nsg47
I0
sg48
(dp2520
g50
g51
sg52
F0.28930299999999998
ssg53
Nsg54
Nsa(dp2521
g13
g14
(S'\x07\xde\x05\r\x0c\x13\x0b\x01\x19@'
tRp2522
sg16
g14
(S'\x07\xde\x05\r\x0c\x12\x1a\x00qH'
tRp2523
sg18
(dp2524
g20
I138
sg21
(dp2525
g23
(lp2526
I138
asg25
(lp2527
I138
asg27
(lp2528
I138
asg29
(lp2529
I138
asg31
(lp2530
I138
assg33
(g34
g35
tp2531
sg37
(dp2532
g23
(lp2533
F0.49994171015517752
asg25
(lp2534
F3
asg27
(lp2535
F8
asg29
(lp2536
F89
asg31
(lp2537
F5
assg44
Nssg45
I2
sg20
I138
sg46
Nsg47
I0
sg48
(dp2538
g50
g51
sg52
F0.29126600000000002
ssg53
Nsg54
Nsa(dp2539
g13
g14
(S'\x07\xde\x05\r\x0c\x13#\x0c<\xd0'
tRp2540
sg16
g14
(S'\x07\xde\x05\r\x0c\x13\x0b\x01g`'
tRp2541
sg18
(dp2542
g20
I139
sg21
(dp2543
g23
(lp2544
I139
asg25
(lp2545
I139
asg27
(lp2546
I139
asg29
(lp2547
I139
asg31
(lp2548
I139
assg33
(g34
g35
tp2549
sg37
(dp2550
g23
(lp2551
F0.80598900035537613
asg25
(lp2552
F5
asg27
(lp2553
F21
asg29
(lp2554
F15
asg31
(lp2555
F3
assg44
Nssg45
I2
sg20
I139
sg46
Nsg47
I0
sg48
(dp2556
g50
g51
sg52
F0.28965200000000002
ssg53
Nsg54
Nsa(dp2557
g13
g14
(S'\x07\xde\x05\r\x0c\x14\x00\x06MH'
tRp2558
sg16
g14
(S'\x07\xde\x05\r\x0c\x13#\x0c\x7f8'
tRp2559
sg18
(dp2560
g20
I140
sg21
(dp2561
g23
(lp2562
I140
asg25
(lp2563
I140
asg27
(lp2564
I140
asg29
(lp2565
I140
asg31
(lp2566
I140
assg33
(g34
g35
tp2567
sg37
(dp2568
g23
(lp2569
F0.62309331088346553
asg25
(lp2570
F5
asg27
(lp2571
F77
asg29
(lp2572
F38
asg31
(lp2573
F6
assg44
Nssg45
I2
sg20
I140
sg46
Nsg47
I0
sg48
(dp2574
g50
g51
sg52
F0.29483700000000002
ssg53
Nsg54
Nsa(dp2575
g13
g14
(S'\x07\xde\x05\r\x0c\x14 \x01\xb5\x80'
tRp2576
sg16
g14
(S'\x07\xde\x05\r\x0c\x14\x00\x06\x93\x98'
tRp2577
sg18
(dp2578
g20
I141
sg21
(dp2579
g23
(lp2580
I141
asg25
(lp2581
I141
asg27
(lp2582
I141
asg29
(lp2583
I141
asg31
(lp2584
I141
assg33
(g34
g35
tp2585
sg37
(dp2586
g23
(lp2587
F0.47743440557590677
asg25
(lp2588
F5
asg27
(lp2589
F36
asg29
(lp2590
F62
asg31
(lp2591
F4
assg44
Nssg45
I2
sg20
I141
sg46
Nsg47
I0
sg48
(dp2592
g50
g51
sg52
F0.28809699999999999
ssg53
Nsg54
Nsa(dp2593
g13
g14
(S'\x07\xde\x05\r\x0c\x15\x08\x00\x17p'
tRp2594
sg16
g14
(S'\x07\xde\x05\r\x0c\x14 \x02\x1b\x10'
tRp2595
sg18
(dp2596
g20
I142
sg21
(dp2597
g23
(lp2598
I142
asg25
(lp2599
I142
asg27
(lp2600
I142
asg29
(lp2601
I142
asg31
(lp2602
I142
assg33
(g34
g35
tp2603
sg37
(dp2604
g23
(lp2605
F0.16010922554346341
asg25
(lp2606
F6
asg27
(lp2607
F7
asg29
(lp2608
F85
asg31
(lp2609
F2
assg44
Nssg45
I2
sg20
I142
sg46
Nsg47
I0
sg48
(dp2610
g50
g51
sg52
F0.301817
ssg53
Nsg54
Nsa(dp2611
g13
g14
(S'\x07\xde\x05\r\x0c\x15\x1d\rm\x80'
tRp2612
sg16
g14
(S'\x07\xde\x05\r\x0c\x15\x08\x00m`'
tRp2613
sg18
(dp2614
g20
I143
sg21
(dp2615
g23
(lp2616
I143
asg25
(lp2617
I143
asg27
(lp2618
I143
asg29
(lp2619
I143
asg31
(lp2620
I143
assg33
(g34
g35
tp2621
sg37
(dp2622
g23
(lp2623
F0.96337134912637845
asg25
(lp2624
F4
asg27
(lp2625
F65
asg29
(lp2626
F10
asg31
(lp2627
F3
assg44
Nssg45
I2
sg20
I143
sg46
Nsg47
I0
sg48
(dp2628
g50
g51
sg52
F0.29710399999999998
ssg53
Nsg54
Nsa(dp2629
g13
g14
(S'\x07\xde\x05\r\x0c\x154\x01S\xd8'
tRp2630
sg16
g14
(S'\x07\xde\x05\r\x0c\x15\x1d\r\xac\x00'
tRp2631
sg18
(dp2632
g20
I144
sg21
(dp2633
g23
(lp2634
I144
asg25
(lp2635
I144
asg27
(lp2636
I144
asg29
(lp2637
I144
asg31
(lp2638
I144
assg33
(g34
g35
tp2639
sg37
(dp2640
g23
(lp2641
F0.57806357941145459
asg25
(lp2642
F3
asg27
(lp2643
F56
asg29
(lp2644
F24
asg31
(lp2645
F5
assg44
Nssg45
I2
sg20
I144
sg46
Nsg47
I0
sg48
(dp2646
g50
g51
sg52
F0.29219499999999998
ssg53
Nsg54
Nsa(dp2647
g13
g14
(S'\x07\xde\x05\r\x0c\x16\x13\x04\x9f\x98'
tRp2648
sg16
g14
(S'\x07\xde\x05\r\x0c\x154\x01\x92X'
tRp2649
sg18
(dp2650
g20
I145
sg21
(dp2651
g23
(lp2652
I145
asg25
(lp2653
I145
asg27
(lp2654
I145
asg29
(lp2655
I145
asg31
(lp2656
I145
assg33
(g34
g35
tp2657
sg37
(dp2658
g23
(lp2659
F0.2255664979415247
asg25
(lp2660
F3
asg27
(lp2661
F16
asg29
(lp2662
F56
asg31
(lp2663
F10
assg44
Nssg45
I2
sg20
I145
sg46
Nsg47
I0
sg48
(dp2664
g50
g51
sg52
F0.31598100000000001
ssg53
Nsg54
Nsa(dp2665
g13
g14
(S'\x07\xde\x05\r\x0c\x17\x06\x0e4\xb8'
tRp2666
sg16
g14
(S'\x07\xde\x05\r\x0c\x16\x13\x04\xe5\xe8'
tRp2667
sg18
(dp2668
g20
I146
sg21
(dp2669
g23
(lp2670
I146
asg25
(lp2671
I146
asg27
(lp2672
I146
asg29
(lp2673
I146
asg31
(lp2674
I146
assg33
(g34
g35
tp2675
sg37
(dp2676
g23
(lp2677
F0.44841481902864222
asg25
(lp2678
F10
asg27
(lp2679
F76
asg29
(lp2680
F100
asg31
(lp2681
F8
assg44
Nssg45
I2
sg20
I146
sg46
Nsg47
I0
sg48
(dp2682
g50
g51
sg52
F0.29897499999999999
ssg53
Nsg54
Nsa(dp2683
g13
g14
(S'\x07\xde\x05\r\x0c\x17"\x02q\x00'
tRp2684
sg16
g14
(S'\x07\xde\x05\r\x0c\x17\x07\x00\x03\xe8'
tRp2685
sg18
(dp2686
g20
I147
sg21
(dp2687
g23
(lp2688
I147
asg25
(lp2689
I147
asg27
(lp2690
I147
asg29
(lp2691
I147
asg31
(lp2692
I147
assg33
(g34
g35
tp2693
sg37
(dp2694
g23
(lp2695
F0.2485885741208147
asg25
(lp2696
F7
asg27
(lp2697
F65
asg29
(lp2698
F69
asg31
(lp2699
F6
assg44
Nssg45
I2
sg20
I147
sg46
Nsg47
I0
sg48
(dp2700
g50
g51
sg52
F0.30975000000000003
ssg53
Nsg54
Nsa(dp2701
g13
g14
(S'\x07\xde\x05\r\x0c\x17;\x0c%`'
tRp2702
sg16
g14
(S'\x07\xde\x05\r\x0c\x17"\x02\xb7P'
tRp2703
sg18
(dp2704
g20
I148
sg21
(dp2705
g23
(lp2706
I148
asg25
(lp2707
I148
asg27
(lp2708
I148
asg29
(lp2709
I148
asg31
(lp2710
I148
assg33
(g34
g35
tp2711
sg37
(dp2712
g23
(lp2713
F0.16263431473043558
asg25
(lp2714
F10
asg27
(lp2715
F88
asg29
(lp2716
F75
asg31
(lp2717
F10
assg44
Nssg45
I2
sg20
I148
sg46
Nsg47
I0
sg48
(dp2718
g50
g51
sg52
F0.324183
ssg53
Nsg54
Nsa(dp2719
g13
g14
(S'\x07\xde\x05\r\x0c\x18)\x0ec\x98'
tRp2720
sg16
g14
(S'\x07\xde\x05\r\x0c\x17;\x0cg\xc8'
tRp2721
sg18
(dp2722
g20
I149
sg21
(dp2723
g23
(lp2724
I149
asg25
(lp2725
I149
asg27
(lp2726
I149
asg29
(lp2727
I149
asg31
(lp2728
I149
assg33
(g34
g35
tp2729
sg37
(dp2730
g23
(lp2731
F0.28712657650878348
asg25
(lp2732
F5
asg27
(lp2733
F41
asg29
(lp2734
F98
asg31
(lp2735
F4
assg44
Nssg45
I2
sg20
I149
sg46
Nsg47
I0
sg48
(dp2736
g50
g51
sg52
F0.29519000000000001
ssg53
Nsg54
Nsa(dp2737
g13
g14
(S'\x07\xde\x05\r\x0c\x19\x19\x02i0'
tRp2738
sg16
g14
(S'\x07\xde\x05\r\x0c\x18)\x0e\xa9\xe8'
tRp2739
sg18
(dp2740
g20
I150
sg21
(dp2741
g23
(lp2742
I150
asg25
(lp2743
I150
asg27
(lp2744
I150
asg29
(lp2745
I150
asg31
(lp2746
I150
assg33
(g34
g35
tp2747
sg37
(dp2748
g23
(lp2749
F0.31636538346121235
asg25
(lp2750
F2
asg27
(lp2751
F40
asg29
(lp2752
F99
asg31
(lp2753
F4
assg44
Nssg45
I2
sg20
I150
sg46
Nsg47
I0
sg48
(dp2754
g50
g51
sg52
F0.29091600000000001
ssg53
Nsg54
Nsa(dp2755
g13
g14
(S'\x07\xde\x05\r\x0c\x199\x02.\x98'
tRp2756
sg16
g14
(S'\x07\xde\x05\r\x0c\x19\x19\x02\xab\x98'
tRp2757
sg18
(dp2758
g20
I151
sg21
(dp2759
g23
(lp2760
I151
asg25
(lp2761
I151
asg27
(lp2762
I151
asg29
(lp2763
I151
asg31
(lp2764
I151
assg33
(g34
g35
tp2765
sg37
(dp2766
g23
(lp2767
F0.95977490325134207
asg25
(lp2768
F3
asg27
(lp2769
F2
asg29
(lp2770
F21
asg31
(lp2771
F2
assg44
Nssg45
I2
sg20
I151
sg46
Nsg47
I0
sg48
(dp2772
g50
g51
sg52
F0.28946300000000003
ssg53
Nsg54
Nsa(dp2773
g13
g14
(S'\x07\xde\x05\r\x0c\x1a\x0f\x08\xca\x00'
tRp2774
sg16
g14
(S'\x07\xde\x05\r\x0c\x199\x034P'
tRp2775
sg18
(dp2776
g20
I152
sg21
(dp2777
g23
(lp2778
I152
asg25
(lp2779
I152
asg27
(lp2780
I152
asg29
(lp2781
I152
asg31
(lp2782
I152
assg33
(g34
g35
tp2783
sg37
(dp2784
g23
(lp2785
F0.73769647993633414
asg25
(lp2786
F8
asg27
(lp2787
F93
asg29
(lp2788
F3
asg31
(lp2789
F9
assg44
Nssg45
I2
sg20
I152
sg46
Nsg47
I0
sg48
(dp2790
g50
g51
sg52
F0.32025700000000001
ssg53
Nsg54
Nsa(dp2791
g13
g14
(S'\x07\xde\x05\r\x0c\x1b\x16\x0b\x0c '
tRp2792
sg16
g14
(S'\x07\xde\x05\r\x0c\x1a\x0f\t\x1c\x08'
tRp2793
sg18
(dp2794
g20
I153
sg21
(dp2795
g23
(lp2796
I153
asg25
(lp2797
I153
asg27
(lp2798
I153
asg29
(lp2799
I153
asg31
(lp2800
I153
assg33
(g34
g35
tp2801
sg37
(dp2802
g23
(lp2803
F0.97459911894184981
asg25
(lp2804
F8
asg27
(lp2805
F11
asg29
(lp2806
F75
asg31
(lp2807
F2
assg44
Nssg45
I2
sg20
I153
sg46
Nsg47
I0
sg48
(dp2808
g50
g51
sg52
F0.29038700000000001
ssg53
Nsg54
Nsa(dp2809
g13
g14
(S'\x07\xde\x05\r\x0c\x1c\x00\rm\x80'
tRp2810
sg16
g14
(S'\x07\xde\x05\r\x0c\x1b\x16\x0c)H'
tRp2811
sg18
(dp2812
g20
I154
sg21
(dp2813
g23
(lp2814
I154
asg25
(lp2815
I154
asg27
(lp2816
I154
asg29
(lp2817
I154
asg31
(lp2818
I154
assg33
(g34
g35
tp2819
sg37
(dp2820
g23
(lp2821
F0.48404404393686307
asg25
(lp2822
F7
asg27
(lp2823
F7
asg29
(lp2824
F52
asg31
(lp2825
F3
assg44
Nssg45
I2
sg20
I154
sg46
Nsg47
I0
sg48
(dp2826
g50
g51
sg52
F0.28692600000000001
ssg53
Nsg54
Nsa(dp2827
g13
g14
(S'\x07\xde\x05\r\x0c\x1c\x1b\x0cT@'
tRp2828
sg16
g14
(S'\x07\xde\x05\r\x0c\x1c\x00\r\xde\xc8'
tRp2829
sg18
(dp2830
g20
I155
sg21
(dp2831
g23
(lp2832
I155
asg25
(lp2833
I155
asg27
(lp2834
I155
asg29
(lp2835
I155
asg31
(lp2836
I155
assg33
(g34
g35
tp2837
sg37
(dp2838
g23
(lp2839
F0.23508617625611719
asg25
(lp2840
F3
asg27
(lp2841
F34
asg29
(lp2842
F49
asg31
(lp2843
F6
assg44
Nssg45
I2
sg20
I155
sg46
Nsg47
I0
sg48
(dp2844
g50
g51
sg52
F0.30621500000000001
ssg53
Nsg54
Nsa(dp2845
g13
g14
(S'\x07\xde\x05\r\x0c\x1c8\x0e\xb5\xa0'
tRp2846
sg16
g14
(S'\x07\xde\x05\r\x0c\x1c\x1b\x0c\xa6H'
tRp2847
sg18
(dp2848
g20
I156
sg21
(dp2849
g23
(lp2850
I156
asg25
(lp2851
I156
asg27
(lp2852
I156
asg29
(lp2853
I156
asg31
(lp2854
I156
assg33
(g34
g35
tp2855
sg37
(dp2856
g23
(lp2857
F0.65306659371343978
asg25
(lp2858
F8
asg27
(lp2859
F49
asg29
(lp2860
F19
asg31
(lp2861
F10
assg44
Nssg45
I2
sg20
I156
sg46
Nsg47
I0
sg48
(dp2862
g50
g51
sg52
F0.30701000000000001
ssg53
Nsg54
Nsa(dp2863
g13
g14
(S'\x07\xde\x05\r\x0c\x1d/\t\xf6\xc8'
tRp2864
sg16
g14
(S'\x07\xde\x05\r\x0c\x1c9\x01kH'
tRp2865
sg18
(dp2866
g20
I157
sg21
(dp2867
g23
(lp2868
I157
asg25
(lp2869
I157
asg27
(lp2870
I157
asg29
(lp2871
I157
asg31
(lp2872
I157
assg33
(g34
g35
tp2873
sg37
(dp2874
g23
(lp2875
F0.76875196528779632
asg25
(lp2876
F10
asg27
(lp2877
F96
asg29
(lp2878
F58
asg31
(lp2879
F2
assg44
Nssg45
I2
sg20
I157
sg46
Nsg47
I0
sg48
(dp2880
g50
g51
sg52
F0.29159499999999999
ssg53
Nsg54
Nsa(dp2881
g13
g14
(S'\x07\xde\x05\r\x0c\x1e\x08\x0eDX'
tRp2882
sg16
g14
(S'\x07\xde\x05\r\x0c\x1d/\nD\xe8'
tRp2883
sg18
(dp2884
g20
I158
sg21
(dp2885
g23
(lp2886
I158
asg25
(lp2887
I158
asg27
(lp2888
I158
asg29
(lp2889
I158
asg31
(lp2890
I158
assg33
(g34
g35
tp2891
sg37
(dp2892
g23
(lp2893
F0.6810368207905434
asg25
(lp2894
F8
asg27
(lp2895
F70
asg29
(lp2896
F8
asg31
(lp2897
F1
assg44
Nssg45
I2
sg20
I158
sg46
Nsg47
I0
sg48
(dp2898
g50
g51
sg52
F0.29556199999999999
ssg53
Nsg54
Nsa(dp2899
g13
g14
(S'\x07\xde\x05\r\x0c\x1e.\x08\x1e '
tRp2900
sg16
g14
(S'\x07\xde\x05\r\x0c\x1e\x08\x0e\xbdp'
tRp2901
sg18
(dp2902
g20
I159
sg21
(dp2903
g23
(lp2904
I159
asg25
(lp2905
I159
asg27
(lp2906
I159
asg29
(lp2907
I159
asg31
(lp2908
I159
assg33
(g34
g35
tp2909
sg37
(dp2910
g23
(lp2911
F0.87971385451260808
asg25
(lp2912
F8
asg27
(lp2913
F30
asg29
(lp2914
F33
asg31
(lp2915
F7
assg44
Nssg45
I2
sg20
I159
sg46
Nsg47
I0
sg48
(dp2916
g50
g51
sg52
F0.29993700000000001
ssg53
Nsg54
Nsa(dp2917
g13
g14
(S'\x07\xde\x05\r\x0c\x1f\x13\x08\x8b\x80'
tRp2918
sg16
g14
(S'\x07\xde\x05\r\x0c\x1e.\x08{\xe0'
tRp2919
sg18
(dp2920
g20
I160
sg21
(dp2921
g23
(lp2922
I160
asg25
(lp2923
I160
asg27
(lp2924
I160
asg29
(lp2925
I160
asg31
(lp2926
I160
assg33
(g34
g35
tp2927
sg37
(dp2928
g23
(lp2929
F0.79021181181705236
asg25
(lp2930
F7
asg27
(lp2931
F55
asg29
(lp2932
F41
asg31
(lp2933
F9
assg44
Nssg45
I2
sg20
I160
sg46
Nsg47
I0
sg48
(dp2934
g50
g51
sg52
F0.30610599999999999
ssg53
Nsg54
Nsa(dp2935
g13
g14
(S'\x07\xde\x05\r\x0c\x1f1\x08\x02\xc8'
tRp2936
sg16
g14
(S'\x07\xde\x05\r\x0c\x1f\x13\x0b^('
tRp2937
sg18
(dp2938
g20
I161
sg21
(dp2939
g23
(lp2940
I161
asg25
(lp2941
I161
asg27
(lp2942
I161
asg29
(lp2943
I161
asg31
(lp2944
I161
assg33
(g34
g35
tp2945
sg37
(dp2946
g23
(lp2947
F0.81913527796968244
asg25
(lp2948
F10
asg27
(lp2949
F87
asg29
(lp2950
F13
asg31
(lp2951
F7
assg44
Nssg45
I2
sg20
I161
sg46
Nsg47
I0
sg48
(dp2952
g50
g51
sg52
F0.30334699999999998
ssg53
Nsg54
Nsa(dp2953
g13
g14
(S'\x07\xde\x05\r\x0c *\x07\xb8\x90'
tRp2954
sg16
g14
(S'\x07\xde\x05\r\x0c\x1f1\x08w\xf8'
tRp2955
sg18
(dp2956
g20
I162
sg21
(dp2957
g23
(lp2958
I162
asg25
(lp2959
I162
asg27
(lp2960
I162
asg29
(lp2961
I162
asg31
(lp2962
I162
assg33
(g34
g35
tp2963
sg37
(dp2964
g23
(lp2965
F0.52275400647653103
asg25
(lp2966
F4
asg27
(lp2967
F68
asg29
(lp2968
F99
asg31
(lp2969
F8
assg44
Nssg45
I2
sg20
I162
sg46
Nsg47
I0
sg48
(dp2970
g50
g51
sg52
F0.30169200000000002
ssg53
Nsg54
Nsa(dp2971
g13
g14
(S'\x07\xde\x05\r\x0c!\x18\x05\xd8\x18'
tRp2972
sg16
g14
(S'\x07\xde\x05\r\x0c *\x0b>\xe8'
tRp2973
sg18
(dp2974
g20
I163
sg21
(dp2975
g23
(lp2976
I163
asg25
(lp2977
I163
asg27
(lp2978
I163
asg29
(lp2979
I163
asg31
(lp2980
I163
assg33
(g34
g35
tp2981
sg37
(dp2982
g23
(lp2983
F0.83581209034910497
asg25
(lp2984
F8
asg27
(lp2985
F5
asg29
(lp2986
F38
asg31
(lp2987
F8
assg44
Nssg45
I2
sg20
I163
sg46
Nsg47
I0
sg48
(dp2988
g50
g51
sg52
F0.304396
ssg53
Nsg54
Nsa(dp2989
g13
g14
(S'\x07\xde\x05\r\x0c",\n-x'
tRp2990
sg16
g14
(S'\x07\xde\x05\r\x0c!\x18\x06* '
tRp2991
sg18
(dp2992
g20
I164
sg21
(dp2993
g23
(lp2994
I164
asg25
(lp2995
I164
asg27
(lp2996
I164
asg29
(lp2997
I164
asg31
(lp2998
I164
assg33
(g34
g35
tp2999
sg37
(dp3000
g23
(lp3001
F0.75405746729132517
asg25
(lp3002
F8
asg27
(lp3003
F39
asg29
(lp3004
F80
asg31
(lp3005
F6
assg44
Nssg45
I2
sg20
I164
sg46
Nsg47
I0
sg48
(dp3006
g50
g51
sg52
F0.29750599999999999
ssg53
Nsg54
Nsa(dp3007
g13
g14
(S'\x07\xde\x05\r\x0c#\x1b\x00e\x90'
tRp3008
sg16
g14
(S'\x07\xde\x05\r\x0c",\n\xb60'
tRp3009
sg18
(dp3010
g20
I165
sg21
(dp3011
g23
(lp3012
I165
asg25
(lp3013
I165
asg27
(lp3014
I165
asg29
(lp3015
I165
asg31
(lp3016
I165
assg33
(g34
g35
tp3017
sg37
(dp3018
g23
(lp3019
F0.66417808555934488
asg25
(lp3020
F7
asg27
(lp3021
F73
asg29
(lp3022
F39
asg31
(lp3023
F2
assg44
Nssg45
I2
sg20
I165
sg46
Nsg47
I0
sg48
(dp3024
g50
g51
sg52
F0.285862
ssg53
Nsg54
Nsa(dp3025
g13
g14
(S"\x07\xde\x05\r\x0c$'\x07\x8d\x98"
tRp3026
sg16
g14
(S'\x07\xde\x05\r\x0c#\x1b\x04|p'
tRp3027
sg18
(dp3028
g20
I166
sg21
(dp3029
g23
(lp3030
I166
asg25
(lp3031
I166
asg27
(lp3032
I166
asg29
(lp3033
I166
asg31
(lp3034
I166
assg33
(g34
g35
tp3035
sg37
(dp3036
g23
(lp3037
F0.92426287040166721
asg25
(lp3038
F6
asg27
(lp3039
F70
asg29
(lp3040
F60
asg31
(lp3041
F2
assg44
Nssg45
I2
sg20
I166
sg46
Nsg47
I0
sg48
(dp3042
g50
g51
sg52
F0.29002
ssg53
Nsg54
Nsa(dp3043
g13
g14
(S'\x07\xde\x05\r\x0c%\x0b\x00Bh'
tRp3044
sg16
g14
(S"\x07\xde\x05\r\x0c$'\x08\x06\xb0"
tRp3045
sg18
(dp3046
g20
I167
sg21
(dp3047
g23
(lp3048
I167
asg25
(lp3049
I167
asg27
(lp3050
I167
asg29
(lp3051
I167
asg31
(lp3052
I167
assg33
(g34
g35
tp3053
sg37
(dp3054
g23
(lp3055
F0.38146814439609411
asg25
(lp3056
F10
asg27
(lp3057
F5
asg29
(lp3058
F6
asg31
(lp3059
F4
assg44
Nssg45
I2
sg20
I167
sg46
Nsg47
I0
sg48
(dp3060
g50
g51
sg52
F0.30490400000000001
ssg53
Nsg54
Nsa(dp3061
g13
g14
(S'\x07\xde\x05\r\x0c%(\x08=`'
tRp3062
sg16
g14
(S'\x07\xde\x05\r\x0c%\x0b\x00\xbfh'
tRp3063
sg18
(dp3064
g20
I168
sg21
(dp3065
g23
(lp3066
I168
asg25
(lp3067
I168
asg27
(lp3068
I168
asg29
(lp3069
I168
asg31
(lp3070
I168
assg33
(g34
g35
tp3071
sg37
(dp3072
g23
(lp3073
F0.66610353244778919
asg25
(lp3074
F9
asg27
(lp3075
F2
asg29
(lp3076
F16
asg31
(lp3077
F6
assg44
Nssg45
I2
sg20
I168
sg46
Nsg47
I0
sg48
(dp3078
g50
g51
sg52
F0.29357
ssg53
Nsg54
Nsa(dp3079
g13
g14
(S'\x07\xde\x05\r\x0c&\x1e\x0ekh'
tRp3080
sg16
g14
(S'\x07\xde\x05\r\x0c%(\x08\xa2\xf0'
tRp3081
sg18
(dp3082
g20
I169
sg21
(dp3083
g23
(lp3084
I169
asg25
(lp3085
I169
asg27
(lp3086
I169
asg29
(lp3087
I169
asg31
(lp3088
I169
assg33
(g34
g35
tp3089
sg37
(dp3090
g23
(lp3091
F0.10220046280499866
asg25
(lp3092
F2
asg27
(lp3093
F39
asg29
(lp3094
F53
asg31
(lp3095
F2
assg44
Nssg45
I2
sg20
I169
sg46
Nsg47
I0
sg48
(dp3096
g50
g51
sg52
F0.30937300000000001
ssg53
Nsg54
Nsa(dp3097
g13
g14
(S"\x07\xde\x05\r\x0c'\x1f\x00\x8c\xa0"
tRp3098
sg16
g14
(S'\x07\xde\x05\r\x0c&\x1f\x00:\x98'
tRp3099
sg18
(dp3100
g20
I170
sg21
(dp3101
g23
(lp3102
I170
asg25
(lp3103
I170
asg27
(lp3104
I170
asg29
(lp3105
I170
asg31
(lp3106
I170
assg33
(g34
g35
tp3107
sg37
(dp3108
g23
(lp3109
F0.24935782233626194
asg25
(lp3110
F9
asg27
(lp3111
F85
asg29
(lp3112
F93
asg31
(lp3113
F6
assg44
Nssg45
I2
sg20
I170
sg46
Nsg47
I0
sg48
(dp3114
g50
g51
sg52
F0.30681599999999998
ssg53
Nsg54
Nsa(dp3115
g13
g14
(S'\x07\xde\x05\r\x0c(1\x030h'
tRp3116
sg16
g14
(S"\x07\xde\x05\r\x0c'\x1f\x00\xeeH"
tRp3117
sg18
(dp3118
g20
I171
sg21
(dp3119
g23
(lp3120
I171
asg25
(lp3121
I171
asg27
(lp3122
I171
asg29
(lp3123
I171
asg31
(lp3124
I171
assg33
(g34
g35
tp3125
sg37
(dp3126
g23
(lp3127
F0.82880355237424674
asg25
(lp3128
F7
asg27
(lp3129
F87
asg29
(lp3130
F75
asg31
(lp3131
F1
assg44
Nssg45
I2
sg20
I171
sg46
Nsg47
I0
sg48
(dp3132
g50
g51
sg52
F0.28569899999999998
ssg53
Nsg54
Nsa(dp3133
g13
g14
(S'\x07\xde\x05\r\x0c) \x00]\xc0'
tRp3134
sg16
g14
(S'\x07\xde\x05\r\x0c(1\x03\xc0\xf0'
tRp3135
sg18
(dp3136
g20
I172
sg21
(dp3137
g23
(lp3138
I172
asg25
(lp3139
I172
asg27
(lp3140
I172
asg29
(lp3141
I172
asg31
(lp3142
I172
assg33
(g34
g35
tp3143
sg37
(dp3144
g23
(lp3145
F0.83848499025989776
asg25
(lp3146
F8
asg27
(lp3147
F39
asg29
(lp3148
F16
asg31
(lp3149
F4
assg44
Nssg45
I2
sg20
I172
sg46
Nsg47
I0
sg48
(dp3150
g50
g51
sg52
F0.29827199999999998
ssg53
Nsg54
Nsa(dp3151
g13
g14
(S'\x07\xde\x05\r\x0c*5\x04\xba\xf0'
tRp3152
sg16
g14
(S'\x07\xde\x05\r\x0c) \x01\xd4\xc0'
tRp3153
sg18
(dp3154
g20
I173
sg21
(dp3155
g23
(lp3156
I173
asg25
(lp3157
I173
asg27
(lp3158
I173
asg29
(lp3159
I173
asg31
(lp3160
I173
assg33
(g34
g35
tp3161
sg37
(dp3162
g23
(lp3163
F0.42674261265088231
asg25
(lp3164
F9
asg27
(lp3165
F23
asg29
(lp3166
F97
asg31
(lp3167
F9
assg44
Nssg45
I2
sg20
I173
sg46
Nsg47
I0
sg48
(dp3168
g50
g51
sg52
F0.30386800000000003
ssg53
Nsg54
Nsa(dp3169
g13
g14
(S'\x07\xde\x05\r\x0c,\x03\x02\xee\x00'
tRp3170
sg16
g14
(S'\x07\xde\x05\r\x0c*5\n1`'
tRp3171
sg18
(dp3172
g20
I174
sg21
(dp3173
g23
(lp3174
I174
asg25
(lp3175
I174
asg27
(lp3176
I174
asg29
(lp3177
I174
asg31
(lp3178
I174
assg33
(g34
g35
tp3179
sg37
(dp3180
g23
(lp3181
F0.30941987047350372
asg25
(lp3182
F9
asg27
(lp3183
F2
asg29
(lp3184
F62
asg31
(lp3185
F3
assg44
Nssg45
I2
sg20
I174
sg46
Nsg47
I0
sg48
(dp3186
g50
g51
sg52
F0.29572100000000001
ssg53
Nsg54
Nsa(dp3187
g13
g14
(S'\x07\xde\x05\r\x0c,;\n\x7f\x80'
tRp3188
sg16
g14
(S'\x07\xde\x05\r\x0c,\x03\x06h\xa0'
tRp3189
sg18
(dp3190
g20
I175
sg21
(dp3191
g23
(lp3192
I175
asg25
(lp3193
I175
asg27
(lp3194
I175
asg29
(lp3195
I175
asg31
(lp3196
I175
assg33
(g34
g35
tp3197
sg37
(dp3198
g23
(lp3199
F0.83141862287879786
asg25
(lp3200
F2
asg27
(lp3201
F23
asg29
(lp3202
F32
asg31
(lp3203
F7
assg44
Nssg45
I2
sg20
I175
sg46
Nsg47
I0
sg48
(dp3204
g50
g51
sg52
F0.29974800000000001
ssg53
Nsg54
Nsa(dp3205
g13
g14
(S'\x07\xde\x05\r\x0c-2\x02\xce\xc0'
tRp3206
sg16
g14
(S'\x07\xde\x05\r\x0c-\x00\x01L\x08'
tRp3207
sg18
(dp3208
g20
I176
sg21
(dp3209
g23
(lp3210
I176
asg25
(lp3211
I176
asg27
(lp3212
I176
asg29
(lp3213
I176
asg31
(lp3214
I176
assg33
(g34
g35
tp3215
sg37
(dp3216
g23
(lp3217
F0.1408233648779644
asg25
(lp3218
F3
asg27
(lp3219
F80
asg29
(lp3220
F67
asg31
(lp3221
F5
assg44
Nssg45
I2
sg20
I176
sg46
Nsg47
I0
sg48
(dp3222
g50
g51
sg52
F0.31139800000000001
ssg53
Nsg54
Nsa(dp3223
g13
g14
(S'\x07\xde\x05\r\x0c.\x1d\x05f\xd0'
tRp3224
sg16
g14
(S'\x07\xde\x05\r\x0c-2\x03(\x98'
tRp3225
sg18
(dp3226
g20
I177
sg21
(dp3227
g23
(lp3228
I177
asg25
(lp3229
I177
asg27
(lp3230
I177
asg29
(lp3231
I177
asg31
(lp3232
I177
assg33
(g34
g35
tp3233
sg37
(dp3234
g23
(lp3235
F0.82364010583737746
asg25
(lp3236
F2
asg27
(lp3237
F30
asg29
(lp3238
F8
asg31
(lp3239
F3
assg44
Nssg45
I2
sg20
I177
sg46
Nsg47
I0
sg48
(dp3240
g50
g51
sg52
F0.29987599999999998
ssg53
Nsg54
Nsa(dp3241
g13
g14
(S'\x07\xde\x05\r\x0c/\x06\x0b\xb8\x00'
tRp3242
sg16
g14
(S'\x07\xde\x05\r\x0c.\x1d\x06\n\xe0'
tRp3243
sg18
(dp3244
g20
I178
sg21
(dp3245
g23
(lp3246
I178
asg25
(lp3247
I178
asg27
(lp3248
I178
asg29
(lp3249
I178
asg31
(lp3250
I178
assg33
(g34
g35
tp3251
sg37
(dp3252
g23
(lp3253
F0.50144810096757575
asg25
(lp3254
F7
asg27
(lp3255
F98
asg29
(lp3256
F26
asg31
(lp3257
F8
assg44
Nssg45
I2
sg20
I178
sg46
Nsg47
I0
sg48
(dp3258
g50
g51
sg52
F0.30079400000000001
ssg53
Nsg54
Nsa(dp3259
g13
g14
(S'\x07\xde\x05\r\x0c0\x03\x05\xe7\xb8'
tRp3260
sg16
g14
(S'\x07\xde\x05\r\x0c/\x06\x0c!x'
tRp3261
sg18
(dp3262
g20
I179
sg21
(dp3263
g23
(lp3264
I179
asg25
(lp3265
I179
asg27
(lp3266
I179
asg29
(lp3267
I179
asg31
(lp3268
I179
assg33
(g34
g35
tp3269
sg37
(dp3270
g23
(lp3271
F0.83609189083315949
asg25
(lp3272
F2
asg27
(lp3273
F29
asg29
(lp3274
F70
asg31
(lp3275
F9
assg44
Nssg45
I2
sg20
I179
sg46
Nsg47
I0
sg48
(dp3276
g50
g51
sg52
F0.30617100000000003
ssg53
Nsg54
Nsa(dp3277
g13
g14
(S'\x07\xde\x05\r\x0c0\x1a\x0e<\x88'
tRp3278
sg16
g14
(S'\x07\xde\x05\r\x0c0\x03\x06\x97\x80'
tRp3279
sg18
(dp3280
g20
I180
sg21
(dp3281
g23
(lp3282
I180
asg25
(lp3283
I180
asg27
(lp3284
I180
asg29
(lp3285
I180
asg31
(lp3286
I180
assg33
(g34
g35
tp3287
sg37
(dp3288
g23
(lp3289
F0.43225255094100001
asg25
(lp3290
F6
asg27
(lp3291
F32
asg29
(lp3292
F2
asg31
(lp3293
F7
assg44
Nssg45
I2
sg20
I180
sg46
Nsg47
I0
sg48
(dp3294
g50
g51
sg52
F0.326714
ssg53
Nsg54
Nsa(dp3295
g13
g14
(S'\x07\xde\x05\r\x0c1\x1c\x0e\xd8\xc8'
tRp3296
sg16
g14
(S'\x07\xde\x05\r\x0c0\x1a\x0e\xe4\x80'
tRp3297
sg18
(dp3298
g20
I181
sg21
(dp3299
g23
(lp3300
I181
asg25
(lp3301
I181
asg27
(lp3302
I181
asg29
(lp3303
I181
asg31
(lp3304
I181
assg33
(g34
g35
tp3305
sg37
(dp3306
g23
(lp3307
F0.27125561870187054
asg25
(lp3308
F8
asg27
(lp3309
F18
asg29
(lp3310
F95
asg31
(lp3311
F8
assg44
Nssg45
I2
sg20
I181
sg46
Nsg47
I0
sg48
(dp3312
g50
g51
sg52
F0.306815
ssg53
Nsg54
Nsa(dp3313
g13
g14
(S'\x07\xde\x05\r\x0c2\x1d\x00qH'
tRp3314
sg16
g14
(S"\x07\xde\x05\r\x0c1\x1d\x00'\x10"
tRp3315
sg18
(dp3316
g20
I182
sg21
(dp3317
g23
(lp3318
I182
asg25
(lp3319
I182
asg27
(lp3320
I182
asg29
(lp3321
I182
asg31
(lp3322
I182
assg33
(g34
g35
tp3323
sg37
(dp3324
g23
(lp3325
F0.66594435852913425
asg25
(lp3326
F10
asg27
(lp3327
F49
asg29
(lp3328
F81
asg31
(lp3329
F10
assg44
Nssg45
I2
sg20
I182
sg46
Nsg47
I0
sg48
(dp3330
g50
g51
sg52
F0.304483
ssg53
Nsg54
Nsa(dp3331
g13
g14
(S'\x07\xde\x05\r\x0c3\x02\x00\x8c\xa0'
tRp3332
sg16
g14
(S'\x07\xde\x05\r\x0c2\x1d\x00\xd6\xd8'
tRp3333
sg18
(dp3334
g20
I183
sg21
(dp3335
g23
(lp3336
I183
asg25
(lp3337
I183
asg27
(lp3338
I183
asg29
(lp3339
I183
asg31
(lp3340
I183
assg33
(g34
g35
tp3341
sg37
(dp3342
g23
(lp3343
F0.16767134243235166
asg25
(lp3344
F2
asg27
(lp3345
F10
asg29
(lp3346
F15
asg31
(lp3347
F8
assg44
Nssg45
I2
sg20
I183
sg46
Nsg47
I0
sg48
(dp3348
g50
g51
sg52
F0.32503100000000001
ssg53
Nsg54
Nsa(dp3349
g13
g14
(S'\x07\xde\x05\r\x0c4*\x05G\x90'
tRp3350
sg16
g14
(S'\x07\xde\x05\r\x0c3\x02\x01\r\x88'
tRp3351
sg18
(dp3352
g20
I184
sg21
(dp3353
g23
(lp3354
I184
asg25
(lp3355
I184
asg27
(lp3356
I184
asg29
(lp3357
I184
asg31
(lp3358
I184
assg33
(g34
g35
tp3359
sg37
(dp3360
g23
(lp3361
F0.90058521096593092
asg25
(lp3362
F8
asg27
(lp3363
F7
asg29
(lp3364
F92
asg31
(lp3365
F5
assg44
Nssg45
I2
sg20
I184
sg46
Nsg47
I0
sg48
(dp3366
g50
g51
sg52
F0.295736
ssg53
Nsg54
Nsa(dp3367
g13
g14
(S'\x07\xde\x05\r\x0c5"\x0e%\x18'
tRp3368
sg16
g14
(S'\x07\xde\x05\r\x0c4*\x05\xd8\x18'
tRp3369
sg18
(dp3370
g20
I185
sg21
(dp3371
g23
(lp3372
I185
asg25
(lp3373
I185
asg27
(lp3374
I185
asg29
(lp3375
I185
asg31
(lp3376
I185
assg33
(g34
g35
tp3377
sg37
(dp3378
g23
(lp3379
F0.23630713771056994
asg25
(lp3380
F5
asg27
(lp3381
F65
asg29
(lp3382
F70
asg31
(lp3383
F4
assg44
Nssg45
I2
sg20
I185
sg46
Nsg47
I0
sg48
(dp3384
g50
g51
sg52
F0.30195100000000002
ssg53
Nsg54
Nsa(dp3385
g13
g14
(S'\x07\xde\x05\r\x0c6\x0f\t\x00\xb0'
tRp3386
sg16
g14
(S'\x07\xde\x05\r\x0c5#\x01\xa9\xc8'
tRp3387
sg18
(dp3388
g20
I186
sg21
(dp3389
g23
(lp3390
I186
asg25
(lp3391
I186
asg27
(lp3392
I186
asg29
(lp3393
I186
asg31
(lp3394
I186
assg33
(g34
g35
tp3395
sg37
(dp3396
g23
(lp3397
F0.7485434015434731
asg25
(lp3398
F5
asg27
(lp3399
F34
asg29
(lp3400
F25
asg31
(lp3401
F4
assg44
Nssg45
I2
sg20
I186
sg46
Nsg47
I0
sg48
(dp3402
g50
g51
sg52
F0.29349599999999998
ssg53
Nsg54
Nsa(dp3403
g13
g14
(S'\x07\xde\x05\r\x0c7\x10\x07nX'
tRp3404
sg16
g14
(S'\x07\xde\x05\r\x0c6\x0f\tZ\x88'
tRp3405
sg18
(dp3406
g20
I187
sg21
(dp3407
g23
(lp3408
I187
asg25
(lp3409
I187
asg27
(lp3410
I187
asg29
(lp3411
I187
asg31
(lp3412
I187
assg33
(g34
g35
tp3413
sg37
(dp3414
g23
(lp3415
F0.44843683190843664
asg25
(lp3416
F4
asg27
(lp3417
F77
asg29
(lp3418
F80
asg31
(lp3419
F6
assg44
Nssg45
I2
sg20
I187
sg46
Nsg47
I0
sg48
(dp3420
g50
g51
sg52
F0.29490300000000003
ssg53
Nsg54
Nsa(dp3421
g13
g14
(S'\x07\xde\x05\r\x0c7+\x04\xd6H'
tRp3422
sg16
g14
(S'\x07\xde\x05\r\x0c7\x10\x07\xc80'
tRp3423
sg18
(dp3424
g20
I188
sg21
(dp3425
g23
(lp3426
I188
asg25
(lp3427
I188
asg27
(lp3428
I188
asg29
(lp3429
I188
asg31
(lp3430
I188
assg33
(g34
g35
tp3431
sg37
(dp3432
g23
(lp3433
F0.99855194010659987
asg25
(lp3434
F7
asg27
(lp3435
F45
asg29
(lp3436
F6
asg31
(lp3437
F2
assg44
Nssg45
I2
sg20
I188
sg46
Nsg47
I0
sg48
(dp3438
g50
g51
sg52
F0.30528300000000003
ssg53
Nsg54
Nsa(dp3439
g13
g14
(S'\x07\xde\x05\r\x0c8&\x05\x01@'
tRp3440
sg16
g14
(S'\x07\xde\x05\r\x0c7+\x05;\xd8'
tRp3441
sg18
(dp3442
g20
I189
sg21
(dp3443
g23
(lp3444
I189
asg25
(lp3445
I189
asg27
(lp3446
I189
asg29
(lp3447
I189
asg31
(lp3448
I189
assg33
(g34
g35
tp3449
sg37
(dp3450
g23
(lp3451
F0.51998416771125444
asg25
(lp3452
F1
asg27
(lp3453
F63
asg29
(lp3454
F81
asg31
(lp3455
F9
assg44
Nssg45
I2
sg20
I189
sg46
Nsg47
I0
sg48
(dp3456
g50
g51
sg52
F0.30138500000000001
ssg53
Nsg54
Nsa(dp3457
g13
g14
(S'\x07\xde\x05\r\x0c9\n\x08T\xd0'
tRp3458
sg16
g14
(S'\x07\xde\x05\r\x0c8&\x05~@'
tRp3459
sg18
(dp3460
g20
I190
sg21
(dp3461
g23
(lp3462
I190
asg25
(lp3463
I190
asg27
(lp3464
I190
asg29
(lp3465
I190
asg31
(lp3466
I190
assg33
(g34
g35
tp3467
sg37
(dp3468
g23
(lp3469
F0.85098171411980583
asg25
(lp3470
F8
asg27
(lp3471
F95
asg29
(lp3472
F18
asg31
(lp3473
F2
assg44
Nssg45
I2
sg20
I190
sg46
Nsg47
I0
sg48
(dp3474
g50
g51
sg52
F0.29185299999999997
ssg53
Nsg54
Nsa(dp3475
g13
g14
(S'\x07\xde\x05\r\x0c:\x0f\x057\xf0'
tRp3476
sg16
g14
(S'\x07\xde\x05\r\x0c9\n\n\xc5\xd0'
tRp3477
sg18
(dp3478
g20
I191
sg21
(dp3479
g23
(lp3480
I191
asg25
(lp3481
I191
asg27
(lp3482
I191
asg29
(lp3483
I191
asg31
(lp3484
I191
assg33
(g34
g35
tp3485
sg37
(dp3486
g23
(lp3487
F0.85296512687349191
asg25
(lp3488
F9
asg27
(lp3489
F62
asg29
(lp3490
F59
asg31
(lp3491
F4
assg44
Nssg45
I2
sg20
I191
sg46
Nsg47
I0
sg48
(dp3492
g50
g51
sg52
F0.29285899999999998
ssg53
Nsg54
Nsa(dp3493
g13
g14
(S'\x07\xde\x05\r\x0c;\x1c\r\x94\x90'
tRp3494
sg16
g14
(S'\x07\xde\x05\r\x0c:\x0f\x05\x95\xb0'
tRp3495
sg18
(dp3496
g20
I192
sg21
(dp3497
g23
(lp3498
I192
asg25
(lp3499
I192
asg27
(lp3500
I192
asg29
(lp3501
I192
asg31
(lp3502
I192
assg33
(g34
g35
tp3503
sg37
(dp3504
g23
(lp3505
F0.59370314201390362
asg25
(lp3506
F7
asg27
(lp3507
F10
asg29
(lp3508
F80
asg31
(lp3509
F2
assg44
Nssg45
I2
sg20
I192
sg46
Nsg47
I0
sg48
(dp3510
g50
g51
sg52
F0.28677599999999998
ssg53
Nsg54
Nsa(dp3511
g13
g14
(S'\x07\xde\x05\r\r\x00\x1a\x03\x11('
tRp3512
sg16
g14
(S'\x07\xde\x05\r\x0c;\x1d\x01\x19@'
tRp3513
sg18
(dp3514
g20
I193
sg21
(dp3515
g23
(lp3516
I193
asg25
(lp3517
I193
asg27
(lp3518
I193
asg29
(lp3519
I193
asg31
(lp3520
I193
assg33
(g34
g35
tp3521
sg37
(dp3522
g23
(lp3523
F0.60863452167149812
asg25
(lp3524
F2
asg27
(lp3525
F100
asg29
(lp3526
F51
asg31
(lp3527
F8
assg44
Nssg45
I2
sg20
I193
sg46
Nsg47
I0
sg48
(dp3528
g50
g51
sg52
F0.30040299999999998
ssg53
Nsg54
Nsa(dp3529
g13
g14
(S'\x07\xde\x05\r\r\x00:\x03r\xd0'
tRp3530
sg16
g14
(S'\x07\xde\x05\r\r\x00\x1a\x03g\x18'
tRp3531
sg18
(dp3532
g20
I194
sg21
(dp3533
g23
(lp3534
I194
asg25
(lp3535
I194
asg27
(lp3536
I194
asg29
(lp3537
I194
asg31
(lp3538
I194
assg33
(g34
g35
tp3539
sg37
(dp3540
g23
(lp3541
F0.36466552610070502
asg25
(lp3542
F1
asg27
(lp3543
F62
asg29
(lp3544
F11
asg31
(lp3545
F3
assg44
Nssg45
I2
sg20
I194
sg46
Nsg47
I0
sg48
(dp3546
g50
g51
sg52
F0.29350199999999999
ssg53
Nsg54
Nsa(dp3547
g13
g14
(S'\x07\xde\x05\r\r\x01"\x08M\x00'
tRp3548
sg16
g14
(S'\x07\xde\x05\r\r\x00:\x03\xd8`'
tRp3549
sg18
(dp3550
g20
I195
sg21
(dp3551
g23
(lp3552
I195
asg25
(lp3553
I195
asg27
(lp3554
I195
asg29
(lp3555
I195
asg31
(lp3556
I195
assg33
(g34
g35
tp3557
sg37
(dp3558
g23
(lp3559
F0.2788783241760624
asg25
(lp3560
F3
asg27
(lp3561
F4
asg29
(lp3562
F10
asg31
(lp3563
F9
assg44
Nssg45
I2
sg20
I195
sg46
Nsg47
I0
sg48
(dp3564
g50
g51
sg52
F0.30927900000000003
ssg53
Nsg54
Nsa(dp3565
g13
g14
(S'\x07\xde\x05\r\r\x02\x04\x02M\xd8'
tRp3566
sg16
g14
(S'\x07\xde\x05\r\r\x01"\x08\xa2\xf0'
tRp3567
sg18
(dp3568
g20
I196
sg21
(dp3569
g23
(lp3570
I196
asg25
(lp3571
I196
asg27
(lp3572
I196
asg29
(lp3573
I196
asg31
(lp3574
I196
assg33
(g34
g35
tp3575
sg37
(dp3576
g23
(lp3577
F0.42359302317548209
asg25
(lp3578
F9
asg27
(lp3579
F93
asg29
(lp3580
F13
asg31
(lp3581
F4
assg44
Nssg45
I2
sg20
I196
sg46
Nsg47
I0
sg48
(dp3582
g50
g51
sg52
F0.295103
ssg53
Nsg54
Nsa(dp3583
g13
g14
(S"\x07\xde\x05\r\r\x03'\x00\xcf\x08"
tRp3584
sg16
g14
(S'\x07\xde\x05\r\r\x02\x04\x02\xaf\x80'
tRp3585
sg18
(dp3586
g20
I197
sg21
(dp3587
g23
(lp3588
I197
asg25
(lp3589
I197
asg27
(lp3590
I197
asg29
(lp3591
I197
asg31
(lp3592
I197
assg33
(g34
g35
tp3593
sg37
(dp3594
g23
(lp3595
F0.84265449772814183
asg25
(lp3596
F9
asg27
(lp3597
F31
asg29
(lp3598
F85
asg31
(lp3599
F3
assg44
Nssg45
I2
sg20
I197
sg46
Nsg47
I0
sg48
(dp3600
g50
g51
sg52
F0.28994700000000001
ssg53
Nsg54
Nsa(dp3601
g13
g14
(S'\x07\xde\x05\r\r\x04\x0b\x026h'
tRp3602
sg16
g14
(S"\x07\xde\x05\r\r\x03'\x02\x03\xa0"
tRp3603
sg18
(dp3604
g20
I198
sg21
(dp3605
g23
(lp3606
I198
asg25
(lp3607
I198
asg27
(lp3608
I198
asg29
(lp3609
I198
asg31
(lp3610
I198
assg33
(g34
g35
tp3611
sg37
(dp3612
g23
(lp3613
F0.53735059905293558
asg25
(lp3614
F2
asg27
(lp3615
F21
asg29
(lp3616
F16
asg31
(lp3617
F2
assg44
Nssg45
I2
sg20
I198
sg46
Nsg47
I0
sg48
(dp3618
g50
g51
sg52
F0.28526600000000002
ssg53
Nsg54
Nsa(dp3619
g13
g14
(S'\x07\xde\x05\r\r\x04*\nw\xb0'
tRp3620
sg16
g14
(S'\x07\xde\x05\r\r\x04\x0b\x07\x8d\x98'
tRp3621
sg18
(dp3622
g20
I199
sg21
(dp3623
g23
(lp3624
I199
asg25
(lp3625
I199
asg27
(lp3626
I199
asg29
(lp3627
I199
asg31
(lp3628
I199
assg33
(g34
g35
tp3629
sg37
(dp3630
g23
(lp3631
F0.40950862150967671
asg25
(lp3632
F6
asg27
(lp3633
F12
asg29
(lp3634
F13
asg31
(lp3635
F4
assg44
Nssg45
I2
sg20
I199
sg46
Nsg47
I0
sg48
(dp3636
g50
g51
sg52
F0.290574
ssg53
Nsg54
NsasS'_exp_key'
p3637
NsS'_dynamic_trials'
p3638
(lp3639
g12
ag55
ag73
ag91
ag109
ag127
ag145
ag163
ag181
ag199
ag217
ag235
ag253
ag271
ag289
ag307
ag325
ag343
ag361
ag379
ag397
ag415
ag433
ag451
ag469
ag487
ag505
ag523
ag541
ag559
ag577
ag595
ag613
ag631
ag649
ag667
ag685
ag703
ag721
ag739
ag757
ag775
ag793
ag811
ag829
ag847
ag865
ag883
ag901
ag919
ag937
ag955
ag973
ag991
ag1009
ag1027
ag1045
ag1063
ag1081
ag1099
ag1117
ag1135
ag1153
ag1171
ag1189
ag1207
ag1225
ag1243
ag1261
ag1279
ag1297
ag1315
ag1333
ag1351
ag1369
ag1387
ag1405
ag1423
ag1441
ag1459
ag1477
ag1495
ag1513
ag1531
ag1549
ag1567
ag1585
ag1603
ag1621
ag1639
ag1657
ag1675
ag1693
ag1711
ag1729
ag1747
ag1765
ag1783
ag1801
ag1819
ag1837
ag1855
ag1873
ag1891
ag1909
ag1927
ag1945
ag1963
ag1981
ag1999
ag2017
ag2035
ag2053
ag2071
ag2089
ag2107
ag2125
ag2143
ag2161
ag2179
ag2197
ag2215
ag2233
ag2251
ag2269
ag2287
ag2305
ag2323
ag2341
ag2359
ag2377
ag2395
ag2413
ag2431
ag2449
ag2467
ag2485
ag2503
ag2521
ag2539
ag2557
ag2575
ag2593
ag2611
ag2629
ag2647
ag2665
ag2683
ag2701
ag2719
ag2737
ag2755
ag2773
ag2791
ag2809
ag2827
ag2845
ag2863
ag2881
ag2899
ag2917
ag2935
ag2953
ag2971
ag2989
ag3007
ag3025
ag3043
ag3061
ag3079
ag3097
ag3115
ag3133
ag3151
ag3169
ag3187
ag3205
ag3223
ag3241
ag3259
ag3277
ag3295
ag3313
ag3331
ag3349
ag3367
ag3385
ag3403
ag3421
ag3439
ag3457
ag3475
ag3493
ag3511
ag3529
ag3547
ag3565
ag3583
ag3601
ag3619
asS'_ids'
p3640
c__builtin__
set
p3641
((lp3642
I0
aI1
aI2
aI3
aI4
aI5
aI6
aI7
aI8
aI9
aI10
aI11
aI12
aI13
aI14
aI15
aI16
aI17
aI18
aI19
aI20
aI21
aI22
aI23
aI24
aI25
aI26
aI27
aI28
aI29
aI30
aI31
aI32
aI33
aI34
aI35
aI36
aI37
aI38
aI39
aI40
aI41
aI42
aI43
aI44
aI45
aI46
aI47
aI48
aI49
aI50
aI51
aI52
aI53
aI54
aI55
aI56
aI57
aI58
aI59
aI60
aI61
aI62
aI63
aI64
aI65
aI66
aI67
aI68
aI69
aI70
aI71
aI72
aI73
aI74
aI75
aI76
aI77
aI78
aI79
aI80
aI81
aI82
aI83
aI84
aI85
aI86
aI87
aI88
aI89
aI90
aI91
aI92
aI93
aI94
aI95
aI96
aI97
aI98
aI99
aI100
aI101
aI102
aI103
aI104
aI105
aI106
aI107
aI108
aI109
aI110
aI111
aI112
aI113
aI114
aI115
aI116
aI117
aI118
aI119
aI120
aI121
aI122
aI123
aI124
aI125
aI126
aI127
aI128
aI129
aI130
aI131
aI132
aI133
aI134
aI135
aI136
aI137
aI138
aI139
aI140
aI141
aI142
aI143
aI144
aI145
aI146
aI147
aI148
aI149
aI150
aI151
aI152
aI153
aI154
aI155
aI156
aI157
aI158
aI159
aI160
aI161
aI162
aI163
aI164
aI165
aI166
aI167
aI168
aI169
aI170
aI171
aI172
aI173
aI174
aI175
aI176
aI177
aI178
aI179
aI180
aI181
aI182
aI183
aI184
aI185
aI186
aI187
aI188
aI189
aI190
aI191
aI192
aI193
aI194
aI195
aI196
aI197
aI198
aI199
atRp3643
sbsS'domain'
p3644
g3
(chyperopt.fmin
Domain
p3645
g5
NtRp3646
(dp3647
g33
(g34
g35
tp3648
sS'name'
p3649
NsS's_new_ids'
p3650
g3
(chyperopt.pyll.base
Literal
p3651
g5
NtRp3652
(dp3653
g3649
S'literal'
p3654
sS'pos_args'
p3655
(lp3656
sS'named_args'
p3657
(lp3658
sS'o_len'
p3659
I7
sS'_obj'
p3660
S'new_ids'
p3661
sS'pure'
p3662
I01
sbsS'vh'
p3663
g3
(chyperopt.vectorize
VectorizeHelper
p3664
g5
NtRp3665
(dp3666
S'take_memo'
p3667
(dp3668
g3
(chyperopt.pyll.base
Apply
p3669
g5
NtRp3670
(dp3671
g3659
Nsg3662
I01
sg3649
S'float'
p3672
sg3655
(lp3673
g3
(g3669
g5
NtRp3674
(dp3675
g3659
Nsg3662
I00
sg3649
S'hyperopt_param'
p3676
sg3655
(lp3677
g3
(g3651
g5
NtRp3678
(dp3679
g3649
g3654
sg3655
(lp3680
sg3657
(lp3681
sg3659
I4
sg3660
g27
sg3662
I01
sbag3
(g3669
g5
NtRp3682
(dp3683
g3659
Nsg3662
I00
sg3649
S'quniform'
p3684
sg3655
(lp3685
g3
(g3651
g5
NtRp3686
(dp3687
g3649
g3654
sg3655
(lp3688
sg3657
(lp3689
sg3659
Nsg3660
I1
sg3662
I01
sbag3
(g3651
g5
NtRp3690
(dp3691
g3649
g3654
sg3655
(lp3692
sg3657
(lp3693
sg3659
Nsg3660
I100
sg3662
I01
sbag3
(g3651
g5
NtRp3694
(dp3695
g3649
g3654
sg3655
(lp3696
sg3657
(lp3697
sg3659
Nsg3660
I1
sg3662
I01
sbasg3657
(lp3698
(S'rng'
p3699
g3
(g3651
g5
NtRp3700
(dp3701
g3649
g3654
sg3655
(lp3702
sg3657
(lp3703
sg3659
Nsg3660
cnumpy.random
__RandomState_ctor
p3704
(tRp3705
(S'MT19937'
p3706
cnumpy.core.multiarray
_reconstruct
p3707
(cnumpy
ndarray
p3708
(I0
tS'b'
tRp3709
(I1
(I624
tcnumpy
dtype
p3710
(S'u4'
I0
I1
tRp3711
(I3
S'<'
NNNI-1
I-1
I0
tbI00
S'\x01$\x9a;\xb0\x01\x9c\'\xca\xffU5\xc9?\xc4\xf2W\x88\xf0\xb6\xe2\xf4\xf5%\t\xbc\xd9U\x8c\x06\xd6&7rR\x9eQ&f\xa8HNA\x0c\xea\xe1@\xef\x92qG3\x04w\xf7)\x1c\x9bp\x8cK-:\x1f\xcd\xb0\xe8\xff\xdc\xaelM\x82\x96up\xb1",\xdb\xcb|\x9e\xae\xe4\x80\xee\xd5\xe9\xdc\x18(\x80\x95-\x80\xe8\xc5\xb8\x0f\xf7\x8e\xe1\x027^n\xc6KR\xfb\xe3\xc20R\x88\xfd\x04.5Y\xac\xd3u\xa9\x7f\xd0.\x1e\xbb#\xc3\x84`\xa2\x13)\xda \xdaT\x90\x17\xf9E\xb5x\xf9H,w\x19\xfao\x87\xff@\xcf\xe7\x06\x96,0q<\x05\x96\xefk\x89\xf9\x90Kpv`\xbf\xb9\xdc\x9fn\x89\xf6Y\xe6\xd2O\x88d\xb4W\xffx\x02$d8\xdd{T\x87B\xa1t\xed\xbcK\xcb_\xcdR\xd4F\xed\x02\xceKn\xa6\x16_l\xc5e>oBM\xdb\x89a\xc0\xa5j\xfb,K7\x8d\x000By^\xfc\x0bW\xce\xb4\xb0\xbd\x88\x8e6\x07\xe1\xa2\xa9\xb3\xbbXL\x8b>\xaa\x93\xcc\x0c\x84\x0c)\xb6;\x17\xa6"\xfb\xd0;\x8f\xb3O\xb7\xfaY.\xd8\x82P\xec\x12\x18\xf3\x95[\xb5c/\x95\xdabD\xbe_.\xbc\xf7A\xd6\xd2j\x8e\x83y\x07V\x7f\x03\x9b\xe5l(\xd3;\x97\x06\xd2nZ<j"\xe9`\'m\x01\xb92C\x87b&\xeb\x8b\xfc,\xedt}7\xcd\xd02\xd7\xf8\xdfRa7S\xca\xfao\x94\xdd\x07\xae\tCz?evS\xcc[Ej-\x9a2\x9d\x7f4m\x84\x8aA\x9c\xca\xa50/\xb5\xfd<\xb13\x15t\x19J\xf6\xad\x95W\xd8\x9d\x92\x8b\xf3>\x95\xc1x2;\xa8\xe1D\xb5\xdas\xd2\xb3+G\x1cW5\xef]x\x16\xcc,e\xdcM\xbd\x8f\xdf\x0e\x14vh\xb1\xbf\xce\xbff\xfa\xf8\xe4q\x85\xa4F#zw_\x80s\x0f\n\xac\xbfj\xe5hA4\x17E\t\x9f>j\xd7\x17&Ym#@\xc9\x83\xbd\x0e\x16-\xcf\xdb-\xe8\x885\x0e\x99\xd6\x80b\x88\x0f_\xb6\x13*\x801\xed\xcaQ\xff8\x8cu\xadS\xacX\x7f\xb0\x8b4h\xb7\xa4\xa0\x05\xaeNu\xbb4\xa6\x03i\xed\x0e\x1ea\xb6b\xd8\xda\xcd\xe5||\xae\x15K\xaa\x82^E\xcc\xa0\xf2\xa3{\x18\xc2\x8b\x9a\xa6\x0fz\x87<J\x8c\x12\x86\x18e\xee\xee\x11\xfe\xd8\xf9\xc3\x91\xe4q\x16\xcdb\x9f\xb7\xf6\x88\x00\x06v\xab\x11n\xd0\x946D\xb9^\xea\xf7\xe8\x07A\xa0\x03tg\x04O\x0b\xd5)\xfb[0\rB\xca\xbb\xacYY\xde\xe5U\xeb\xd1\xee\xac\xc0`\xa0)\x87\xd8!R=\xff\xde<(\xd0\x10\xde_\xbc\x03\xf6N\x9fE,bI \xb3\xfe{>%\x95\'\xdeU\x8f\xf6\x86\xb9\x93\xb9%\x12\xf7\xc9\x03\xb7\xa0&4\xd1%u\\\xae\xd65\xc5\xa5\x8f"S\xccs\xf1\x01\xb2Y;\xce\x1ff\xc4/\r\xad\x99\xacvm\x94OY\xa9\x91\xbbHN\xb4\xe3\xf6\\<\x9eu\xed\xaf\xb6\xaaU\xa4"?=\x910\xdc5\x1b\xa4\x9f\x8a\xec\xd0\xd4A\xa8\xfa@k\xeb\t\xc1\xfe@\xc25I\x01d\xb2\xbd(:\xb3\xc9\x04\x14\xca\xa2\xb9\xfa\x90\xe0B\xda\xf3!"\xb6e\x05\xe4L\xf4s!\xa1\xab\x19\n\t\xb2\xbb\xe0\x8f\xc0\xe6\x88\x16<\xd2\xa4\xdfj\xb8\xea<\xccw}\\!\xb2\x02\x99\x07mwT\xef\\\x8aY\x94\xad\xa6\xb9\xd9\xde\xf9?\x0c6\xe35\xac\xe1\xf6Qv\x96\xfa\x0c\x10\x97\xffPs\x95\xc5B\xf0\x05\x9f[p\xceb\xc5\xf9U\x04\x9dI\x93\xc8)\x00\xed\x1d\xb8\x93\xe6BBs\xba\xa8*\x103\xa4N\xd3]IN$\xa9\xa0\xb9\x0b\x82LA\xbfM\xbf\xaco\x83\xd8\x96.\x9c\x8b\xee\xf9E\xaf\xec%\x85\xec\xfa\xff\x03p\xfb\'\xce\xdf\x12\x11B\x1b\xbcA\xfcx\x99a/%/\x0ca7vI\xaf\xa2\xd6\xfbQ4\xb5:I\n\xcd\x87Er\x81\x08\x05J\xfb\x9c\x0b\xb7\xde\xb0\xb7\x9f\xfe<\xcf\xe4\xf8\xf6\xed\x9a\x87^\xe5\xd4\xa4^X\x07$\x86{g}\x7fe\xb7adg\xee\x9d@0x;\xa2\x08\xb2\xc1\xaf\xa1\r\n\x9a\xb3A\xe3\xc4\xe4\x1fVe$\xf2\t\x93K\x02\xdb\n\'\xe7\xc1,\xc9\xe4\x15\x13\xa3\xf7\xe1w\xc7\xf5\xd6\x92\x19\x7f\x1b%\xea\xf1[\xb7\x81P\xd95~\xbc\xab\xefd@\x9er\x88M\xa0\x1f0kI\xbc\x12\x9bj|\x0b\xcf;\xc5G\x8fh[9\xa2\xa0\xd9D\x07\xcb_\xd5A\xca\x1b\x96J?\x94\xb3Kq\x9co^):4w]\x94\xcc\xcd\x15\x9eM\\\x15"\xec\xf5\xb2\xdf\xee\xe5\xb2\xdb\xbd\x83\x89\xb3\t\xfes\x87\x997\x02\xdf\x92\xc3\xc2\xdd\xa6r\xac\xad,\x95\xb3\x90\xd0`\xdaA\x0e \xa6#\xda\xac\xb20B\x9b[\x97\xc9\x15n\x1a\xc7\xf2\x1fV\xeb\xa1er\xf0B\xfa\x1c\x1a=7\x88\x1c\x80\x93\xea\x97\xc7\xe8f\xaax\x15:\xcd\x83\x94A\xde1\xe70\xe3Q\xa1\x13\x074\xb1\xd0\xb8\x01\x9a\xe1q\xdfIo\xdd\xd3C\xbe\xab\x8a\x99\x1c\xdb\x17\x1dK\xb2\x8dUL\xef\x03\nqK\x94z"\xbdsLeN\xe2\xa2\xfa\x05\xba\xab\xd1\xf9\x94\x95\xb8\xaf\xbb\xa60\xce\x0bvn\xa9z\'\xb8\xa4\n\xa8\x7f\xa1\xc0\x9e\x11G=3\xb9/\xebf;e\x91]\xd4gM\xc9\x7fX\xa0m\xe5\x80\xcdO\xc2\xa4\xde\xf4$\x19w\x94\x95\xack\x90\x19A\x1f\x97\xbe\xf4`4\xfd\xdcG\xaff\xecw^i\x8el\xc7\x10\xa2Bi|}\x86\xa3U\xf4\xfb\xab\x11q[\x107\xc8\xe4\xfc\x11\x0fDt:\xddQyB\x8a\x91v->yrF(\xd4e\t\'\xad\xa2\x7f\x01bp\x90[-\xfb)\xa0-U\r\xf1j>\x88\xbc\'.\xd6\xfc\xff\x83\xce\x16\x92\xfa\x02\xc7\xc0\x17\x92\xba\xe9\xf3\xabG\xcd\x14\xaf\x1a\x0c\xa2\xea^\x9fu\x83\xfc\xb3\xb29|\x1a\xc9\\\xd5\xf8\xed\x0c\xf6s<\x13\\\xdd\xcc\x06\x03\xc8-\xdc3\xe5\xe9k\xd2\xfb\x89\xc6[\xf5[\r\xfe\xfet\x83r\x1fq\x85\xad\xa0\x0f\x0f\xd8>\xd7\xad\x92\xc9\x89\xbb\xa0\xbe\xd9\x7f\x82\x93\x05\xf5\x86\x02\x82gnn;\x92:\xab6g\x9f\xea\x03i\xdaF\x1f\x1b4z\x90hB\xc1\xf2W\xa5B\xacQ\x86\xde\xa8\x13\xc7;sw)j\x83\x1b\xab\x843\x19\x1dd\x1f\xf3\x1d&\xc5k\xe2\x04d\xac]q\x16w\x0b\xe5\xba\x17\xee\xbde\xe7\x01\x183 6\xd5\xa9L\x8d\x8chSJ\xf4\xfcfH\xd0\xe1%Sm\x1cqyP\x93c\x1d\xf7x\xef\x11\xaa\xbe\x16$&\t\x8f\x04y\xf2\xa7\xdbxP?\xa4\xb1\x1d\x12\xc1N#:\xdfwQ30\xc9B\x10\x88\xf3k\xa0\xb6\xd6t4]\xf0\xe93\x9e7\x11s;v\xb2<p\xe6\xd7\x18T\xb5k\xc1\xc0\xb0-\xb8\xe9\'y\x80\xe9\xce\xc5X\xed\x8a\x14im\xbb\xf7\x86\xe2HX\xe8k1\xe5\xcc\xa5\xea\xbf\xebgTU=\xd5\xc5\xa6\xb6\xd5\x1a\x1b\xfa/\xd4G\x8d\xe9HL{\xad\xee\x8c\x91\xaf\x85<\x04\x17+\x04\x11\xb6\xc5y\xb5Ux\xa7\xbetG\xc1Qr\xaay2\x95n\x0e\x11\x18\xc2\x10\x9f\xf7\x17\x1e\x85\x86\x84Q\xfc\x0e4O\x9c2<\xa3U\xefC\x01\xa8\xed\xa0&\xf3\x0em35\x82[\x98nD\xc1\x97\x97\xee\x8c\xda4Q>\xc22\t\x83\x16\xb09a\x95_(\xa84\x1e\x8a<7\x86-y\xc3N\xa9\xb3\xf2I\x15\x8b`\x132\x8c\x08\xbeE\x85Huw\x0f\x9b"<\x06Ra\xce3\xa1\x1eZRa\x03\xc5\xb4\xc9\xa0e\xf5W\xd0/\xdag-\xb2\'\x038\xd8\xcd\xdd\xa0\xe3j\xba&\xcb\xb5!\xe3\xad\xe3\x91\x7f6P?F/\x9a\xfd\xe1\x18\x97\xceK\xbd\x05\xdc\x8e\xdeS.\x8d\xb4tEi\x13\xd3W+\xaf\xea\xea+E\x91U\x9c\xacS\xe3\xad\'\xac\x95\xbe[\x92\xe6\x9e\x11\xb1\x8c\xbd&\xd0W\xc5\xa9\xc6tN\x18\xb8J\xbc\x91\x8b\xc1&\x8c\xfa\x92\x86\x9c\xe3\x8c\xbd\x07\xa8p\xa8\x19\xef\xe8\x89\x87\xbe*L\x99\xf0\x17\x14e\xc7\xaeKsX\xe5\xb9yh\x0c\xa8\xd6\x98\xd0{\xf5:\x04\x07\xa3\x03\x9e\xf6\x10\xec \xab>\xabY\xabyk\xe3\x15K\xc2/)\x0c~\x89D\x94\xea\xa1\xa5a\xa9\xa9\x99@\x07\x86\x15\xce\xa6\xcc;\xc7y\x8ddMcl\x1bg\x93\xd6(\x97\xa0Z\xe7\x98K(r\xe4\xc6\xac\xa0\xff\x89\xb9- \xeeu\xb9\x05q\x8bq\xd5\xdc\xbf\xcd\xc1\xdc\xaf\x8ct\xd7\x87\x84\xbdy\x85\xc0f\x12\xdf\xb0%P\xe9\xa3\x13\xb1\x17?\x85\xf7\x93\xb0\xb3\xb4\x83\xa0V\x14$\xbe}\xa4\xbe8\x8c\xb9\x80S\x9d\x05R\xb3R\r1zA\xbd0\xb3)\xce\xe6\xff\x9b[\xea\xc4k \x15\x91\x97\xb3\x0c\xca\x99\x9d|X\xa7-\xb3\xdad\x07fG\xee>\x9c\xd12)\t\xf1\x824\xe4\ng\xf0\xdc@\x18?\xd75s\x88\x1c\xe8\x18N\x9c\x05\xf8\x9c\xf6u\xd3\xe2\x9c\xa2\xf1\xc0\x0c\xe4\x01\xf1\x18\xb5\x9ex<hg]\x85\xbc\xfa\xd4y3\xe5g\xc1\x06q>8\xb8\xe3\xf4\x1a\x0b\x89\xa5\xf4\x95X\x8c+=\xf0/\xf1W\xed\xd2\x0f\xe9\x1d\xff\x8c\xb9*\x18R\xad\x91\x89\x88\x19\xbc\xee\xca\xc5\xc4\xfc\x9b?\xc1\x0b\xfcjU\xfaGsU\x0e\xed\xa6w\xba\xd5\x08@!\xde\xb4\xe1N\x03\xdb\x86%\x81\xb6\xfe\x10/\xa5\xf1\xb9\xfe\xd7{\x0b\r\xda\xea\xa1RRO\xcd<6\xf8S\xa1\xc1dj_yK\x018\n\xf2\xba\xf4^\xcaO/\x9e[\xf0\xd1_+y\x8e\xec\t%\xfc\x88l?&\xcd\x921\xef#\xbe?nY\x868R\xbc\xc3\xe9\x10\x8ee\x9e\xb4\x14\xa4\xa3?\xe4\x88\xc8oE\xf5\xc3\xc8\xa6\x17\xb7\xefe\xf3\xb8>\x10\xaf\x15:]NK\xe6\x0cK&3\x0b@4\xa4(\xd6\xd1&\xeb$N\x9e\xd5F\xd2k\x99\xa5\t]\xaddy\xb0\xc6\x82<\'\xffj\x1e\xaf\x1bAzj\x7f\x1e\xf0Qh\xa5\xbc\x0f\x99B\xe8\xe2\xf5p\xfbs\x91\xa0\x95\xea[7\x02\xbc\xca*\x7f\xb4\x0f\xac\x14\x17\xed\x12U0=\x01\x848\xd3\x97@\xac\xf7i\xcd"\xa5[\x7f\x13Q>\xd0\xf1\x8d!S\xca\x96\xce'
tbI10
I0
F0
tbsg3662
I01
sbtp3712
asbasg3657
(lp3713
sbasg3657
(lp3714
sb(lp3715
g3
(g3669
g5
NtRp3716
(dp3717
g3659
Nsg3662
I01
sg3649
S'idxs_take'
p3718
sg3655
(lp3719
g3
(g3669
g5
NtRp3720
(dp3721
g3659
Nsg3662
I01
sg3649
S'array_union'
p3722
sg3655
(lp3723
g3
(g3669
g5
NtRp3724
(dp3725
g3659
Nsg3662
I01
sg3649
g3722
sg3655
(lp3726
g3
(g3669
g5
NtRp3727
(dp3728
g3659
Nsg3662
I01
sg3649
g3722
sg3655
(lp3729
g3652
asg3657
(lp3730
sbasg3657
(lp3731
sbasg3657
(lp3732
sbag3
(g3669
g5
NtRp3733
(dp3734
g3659
Nsg3662
I01
sg3649
S'idxs_map'
p3735
sg3655
(lp3736
g3720
ag3
(g3651
g5
NtRp3737
(dp3738
g3649
g3654
sg3655
(lp3739
sg3657
(lp3740
sg3659
I5
sg3660
g3672
sg3662
I01
sbag3
(g3669
g5
NtRp3741
(dp3742
g3659
Nsg3662
I00
sg3649
g3655
sg3655
(lp3743
g3720
ag3
(g3669
g5
NtRp3744
(dp3745
g3659
Nsg3662
I01
sg3649
g3718
sg3655
(lp3746
g3
(g3669
g5
NtRp3747
(dp3748
g3659
Nsg3662
I01
sg3649
g3722
sg3655
(lp3749
g3720
asg3657
(lp3750
sbag3
(g3669
g5
NtRp3751
(dp3752
g3659
Nsg3662
I00
sg3649
g3684
sg3655
(lp3753
g3686
ag3690
ag3694
asg3657
(lp3754
(lp3755
S'size'
p3756
ag3
(g3669
g5
NtRp3757
(dp3758
g3659
Nsg3662
I01
sg3649
S'len'
p3759
sg3655
(lp3760
g3747
asg3657
(lp3761
sbaa(g3699
g3
(g3651
g5
NtRp3762
(dp3763
g3649
g3654
sg3655
(lp3764
sg3657
(lp3765
sg3659
Nsg3660
g3705
sg3662
I01
sbtp3766
asbag3720
asg3657
(lp3767
sbasg3657
(lp3768
sbasg3657
(lp3769
sbag3724
asg3657
(lp3770
sbasg3
(g3669
g5
NtRp3771
(dp3772
g3659
Nsg3662
I01
sg3649
S'int'
p3773
sg3655
(lp3774
g3670
asg3657
(lp3775
sb(lp3776
g3
(g3669
g5
NtRp3777
(dp3778
g3659
Nsg3662
I01
sg3649
g3718
sg3655
(lp3779
g3724
ag3
(g3669
g5
NtRp3780
(dp3781
g3659
Nsg3662
I01
sg3649
g3735
sg3655
(lp3782
g3724
ag3
(g3651
g5
NtRp3783
(dp3784
g3649
g3654
sg3655
(lp3785
sg3657
(lp3786
sg3659
I3
sg3660
g3773
sg3662
I01
sbag3
(g3669
g5
NtRp3787
(dp3788
g3659
Nsg3662
I00
sg3649
g3655
sg3655
(lp3789
g3724
ag3716
asg3657
(lp3790
sbasg3657
(lp3791
sbag3727
asg3657
(lp3792
sbasg3
(g3669
g5
NtRp3793
(dp3794
g3659
Nsg3662
I01
sg3649
g3672
sg3655
(lp3795
g3
(g3669
g5
NtRp3796
(dp3797
g3659
Nsg3662
I00
sg3649
g3676
sg3655
(lp3798
g3
(g3651
g5
NtRp3799
(dp3800
g3649
g3654
sg3655
(lp3801
sg3657
(lp3802
sg3659
I12
sg3660
g29
sg3662
I01
sbag3
(g3669
g5
NtRp3803
(dp3804
g3659
Nsg3662
I00
sg3649
g3684
sg3655
(lp3805
g3
(g3651
g5
NtRp3806
(dp3807
g3649
g3654
sg3655
(lp3808
sg3657
(lp3809
sg3659
Nsg3660
I1
sg3662
I01
sbag3
(g3651
g5
NtRp3810
(dp3811
g3649
g3654
sg3655
(lp3812
sg3657
(lp3813
sg3659
Nsg3660
I100
sg3662
I01
sbag3
(g3651
g5
NtRp3814
(dp3815
g3649
g3654
sg3655
(lp3816
sg3657
(lp3817
sg3659
Nsg3660
I1
sg3662
I01
sbasg3657
(lp3818
(g3699
g3700
tp3819
asbasg3657
(lp3820
sbasg3657
(lp3821
sb(lp3822
g3
(g3669
g5
NtRp3823
(dp3824
g3659
Nsg3662
I01
sg3649
g3718
sg3655
(lp3825
g3
(g3669
g5
NtRp3826
(dp3827
g3659
Nsg3662
I01
sg3649
g3722
sg3655
(lp3828
g3
(g3669
g5
NtRp3829
(dp3830
g3659
Nsg3662
I01
sg3649
g3722
sg3655
(lp3831
g3727
asg3657
(lp3832
sbasg3657
(lp3833
sbag3
(g3669
g5
NtRp3834
(dp3835
g3659
Nsg3662
I01
sg3649
g3735
sg3655
(lp3836
g3826
ag3
(g3651
g5
NtRp3837
(dp3838
g3649
g3654
sg3655
(lp3839
sg3657
(lp3840
sg3659
I5
sg3660
g3672
sg3662
I01
sbag3
(g3669
g5
NtRp3841
(dp3842
g3659
Nsg3662
I00
sg3649
g3655
sg3655
(lp3843
g3826
ag3
(g3669
g5
NtRp3844
(dp3845
g3659
Nsg3662
I01
sg3649
g3718
sg3655
(lp3846
g3
(g3669
g5
NtRp3847
(dp3848
g3659
Nsg3662
I01
sg3649
g3722
sg3655
(lp3849
g3826
asg3657
(lp3850
sbag3
(g3669
g5
NtRp3851
(dp3852
g3659
Nsg3662
I00
sg3649
g3684
sg3655
(lp3853
g3806
ag3810
ag3814
asg3657
(lp3854
(lp3855
g3756
ag3
(g3669
g5
NtRp3856
(dp3857
g3659
Nsg3662
I01
sg3649
g3759
sg3655
(lp3858
g3847
asg3657
(lp3859
sbaa(g3699
g3762
tp3860
asbag3826
asg3657
(lp3861
sbasg3657
(lp3862
sbasg3657
(lp3863
sbag3829
asg3657
(lp3864
sbasg3
(g3669
g5
NtRp3865
(dp3866
g3659
Nsg3662
I01
sg3649
g3773
sg3655
(lp3867
g3793
asg3657
(lp3868
sb(lp3869
g3
(g3669
g5
NtRp3870
(dp3871
g3659
Nsg3662
I01
sg3649
g3718
sg3655
(lp3872
g3829
ag3
(g3669
g5
NtRp3873
(dp3874
g3659
Nsg3662
I01
sg3649
g3735
sg3655
(lp3875
g3829
ag3
(g3651
g5
NtRp3876
(dp3877
g3649
g3654
sg3655
(lp3878
sg3657
(lp3879
sg3659
I3
sg3660
g3773
sg3662
I01
sbag3
(g3669
g5
NtRp3880
(dp3881
g3659
Nsg3662
I00
sg3649
g3655
sg3655
(lp3882
g3829
ag3823
asg3657
(lp3883
sbasg3657
(lp3884
sbag3727
asg3657
(lp3885
sbasg3686
(lp3886
g3
(g3669
g5
NtRp3887
(dp3888
g3659
Nsg3662
I01
sg3649
g3718
sg3655
(lp3889
g3
(g3669
g5
NtRp3890
(dp3891
g3659
Nsg3662
I01
sg3649
g3722
sg3655
(lp3892
g3652
asg3657
(lp3893
sbag3
(g3669
g5
NtRp3894
(dp3895
g3659
Nsg3662
I01
sg3649
S'asarray'
p3896
sg3655
(lp3897
g3
(g3669
g5
NtRp3898
(dp3899
g3659
Nsg3662
I01
sg3649
S'repeat'
p3900
sg3655
(lp3901
g3
(g3669
g5
NtRp3902
(dp3903
g3659
Nsg3662
I01
sg3649
g3759
sg3655
(lp3904
g3652
asg3657
(lp3905
sbag3686
asg3657
(lp3906
sbasg3657
(lp3907
sbag3747
asg3657
(lp3908
sbasg3
(g3669
g5
NtRp3909
(dp3910
g3659
Nsg3662
I00
sg3649
S'uniform'
p3911
sg3655
(lp3912
g3
(g3651
g5
NtRp3913
(dp3914
g3649
g3654
sg3655
(lp3915
sg3657
(lp3916
sg3659
Nsg3660
F0.10000000000000001
sg3662
I01
sbag3
(g3651
g5
NtRp3917
(dp3918
g3649
g3654
sg3655
(lp3919
sg3657
(lp3920
sg3659
Nsg3660
I1
sg3662
I01
sbasg3657
(lp3921
(g3699
g3700
tp3922
asb(lp3923
g3
(g3669
g5
NtRp3924
(dp3925
g3659
Nsg3662
I01
sg3649
g3718
sg3655
(lp3926
g3
(g3669
g5
NtRp3927
(dp3928
g3659
Nsg3662
I01
sg3649
g3722
sg3655
(lp3929
g3
(g3669
g5
NtRp3930
(dp3931
g3659
Nsg3662
I01
sg3649
g3722
sg3655
(lp3932
g3727
asg3657
(lp3933
sbasg3657
(lp3934
sbag3
(g3669
g5
NtRp3935
(dp3936
g3659
Nsg3662
I00
sg3649
g3911
sg3655
(lp3937
g3913
ag3917
asg3657
(lp3938
(lp3939
g3756
ag3
(g3669
g5
NtRp3940
(dp3941
g3659
Nsg3662
I01
sg3649
g3759
sg3655
(lp3942
g3927
asg3657
(lp3943
sbaa(g3699
g3762
tp3944
asbag3930
asg3657
(lp3945
sbasg3913
(lp3946
g3
(g3669
g5
NtRp3947
(dp3948
g3659
Nsg3662
I01
sg3649
g3718
sg3655
(lp3949
g3
(g3669
g5
NtRp3950
(dp3951
g3659
Nsg3662
I01
sg3649
g3722
sg3655
(lp3952
g3652
asg3657
(lp3953
sbag3
(g3669
g5
NtRp3954
(dp3955
g3659
Nsg3662
I01
sg3649
g3896
sg3655
(lp3956
g3
(g3669
g5
NtRp3957
(dp3958
g3659
Nsg3662
I01
sg3649
g3900
sg3655
(lp3959
g3
(g3669
g5
NtRp3960
(dp3961
g3659
Nsg3662
I01
sg3649
g3759
sg3655
(lp3962
g3652
asg3657
(lp3963
sbag3913
asg3657
(lp3964
sbasg3657
(lp3965
sbag3927
asg3657
(lp3966
sbasg3917
(lp3967
g3
(g3669
g5
NtRp3968
(dp3969
g3659
Nsg3662
I01
sg3649
g3718
sg3655
(lp3970
g3
(g3669
g5
NtRp3971
(dp3972
g3659
Nsg3662
I01
sg3649
g3722
sg3655
(lp3973
g3652
asg3657
(lp3974
sbag3
(g3669
g5
NtRp3975
(dp3976
g3659
Nsg3662
I01
sg3649
g3896
sg3655
(lp3977
g3
(g3669
g5
NtRp3978
(dp3979
g3659
Nsg3662
I01
sg3649
g3900
sg3655
(lp3980
g3
(g3669
g5
NtRp3981
(dp3982
g3659
Nsg3662
I01
sg3649
g3759
sg3655
(lp3983
g3652
asg3657
(lp3984
sbag3917
asg3657
(lp3985
sbasg3657
(lp3986
sbag3927
asg3657
(lp3987
sbasg3
(g3669
g5
NtRp3988
(dp3989
g3659
Nsg3662
I01
sg3649
g3672
sg3655
(lp3990
g3
(g3669
g5
NtRp3991
(dp3992
g3659
Nsg3662
I00
sg3649
g3676
sg3655
(lp3993
g3
(g3651
g5
NtRp3994
(dp3995
g3649
g3654
sg3655
(lp3996
sg3657
(lp3997
sg3659
I12
sg3660
g23
sg3662
I01
sbag3909
asg3657
(lp3998
sbasg3657
(lp3999
sb(lp4000
g3
(g3669
g5
NtRp4001
(dp4002
g3659
Nsg3662
I01
sg3649
g3718
sg3655
(lp4003
g3930
ag3
(g3669
g5
NtRp4004
(dp4005
g3659
Nsg3662
I01
sg3649
g3735
sg3655
(lp4006
g3930
ag3
(g3651
g5
NtRp4007
(dp4008
g3649
g3654
sg3655
(lp4009
sg3657
(lp4010
sg3659
I5
sg3660
g3672
sg3662
I01
sbag3
(g3669
g5
NtRp4011
(dp4012
g3659
Nsg3662
I00
sg3649
g3655
sg3655
(lp4013
g3930
ag3924
asg3657
(lp4014
sbasg3657
(lp4015
sbag3727
asg3657
(lp4016
sbasg3
(g3669
g5
NtRp4017
(dp4018
g3659
Nsg3662
I00
sg3649
g3684
sg3655
(lp4019
g3
(g3651
g5
NtRp4020
(dp4021
g3649
g3654
sg3655
(lp4022
sg3657
(lp4023
sg3659
Nsg3660
I1
sg3662
I01
sbag3
(g3651
g5
NtRp4024
(dp4025
g3649
g3654
sg3655
(lp4026
sg3657
(lp4027
sg3659
Nsg3660
I10
sg3662
I01
sbag3
(g3651
g5
NtRp4028
(dp4029
g3649
g3654
sg3655
(lp4030
sg3657
(lp4031
sg3659
Nsg3660
I1
sg3662
I01
sbasg3657
(lp4032
(g3699
g3700
tp4033
asb(lp4034
g3
(g3669
g5
NtRp4035
(dp4036
g3659
Nsg3662
I01
sg3649
g3718
sg3655
(lp4037
g3
(g3669
g5
NtRp4038
(dp4039
g3659
Nsg3662
I01
sg3649
g3722
sg3655
(lp4040
g3
(g3669
g5
NtRp4041
(dp4042
g3659
Nsg3662
I01
sg3649
g3722
sg3655
(lp4043
g3
(g3669
g5
NtRp4044
(dp4045
g3659
Nsg3662
I01
sg3649
g3722
sg3655
(lp4046
g3727
asg3657
(lp4047
sbasg3657
(lp4048
sbasg3657
(lp4049
sbag3
(g3669
g5
NtRp4050
(dp4051
g3659
Nsg3662
I00
sg3649
g3684
sg3655
(lp4052
g4020
ag4024
ag4028
asg3657
(lp4053
(lp4054
g3756
ag3
(g3669
g5
NtRp4055
(dp4056
g3659
Nsg3662
I01
sg3649
g3759
sg3655
(lp4057
g4038
asg3657
(lp4058
sbaa(g3699
g3762
tp4059
asbag4041
asg3657
(lp4060
sbasg4020
(lp4061
g3
(g3669
g5
NtRp4062
(dp4063
g3659
Nsg3662
I01
sg3649
g3718
sg3655
(lp4064
g3
(g3669
g5
NtRp4065
(dp4066
g3659
Nsg3662
I01
sg3649
g3722
sg3655
(lp4067
g3652
asg3657
(lp4068
sbag3
(g3669
g5
NtRp4069
(dp4070
g3659
Nsg3662
I01
sg3649
g3896
sg3655
(lp4071
g3
(g3669
g5
NtRp4072
(dp4073
g3659
Nsg3662
I01
sg3649
g3900
sg3655
(lp4074
g3
(g3669
g5
NtRp4075
(dp4076
g3659
Nsg3662
I01
sg3649
g3759
sg3655
(lp4077
g3652
asg3657
(lp4078
sbag4020
asg3657
(lp4079
sbasg3657
(lp4080
sbag4038
asg3657
(lp4081
sbasg4024
(lp4082
g3
(g3669
g5
NtRp4083
(dp4084
g3659
Nsg3662
I01
sg3649
g3718
sg3655
(lp4085
g3
(g3669
g5
NtRp4086
(dp4087
g3659
Nsg3662
I01
sg3649
g3722
sg3655
(lp4088
g3652
asg3657
(lp4089
sbag3
(g3669
g5
NtRp4090
(dp4091
g3659
Nsg3662
I01
sg3649
g3896
sg3655
(lp4092
g3
(g3669
g5
NtRp4093
(dp4094
g3659
Nsg3662
I01
sg3649
g3900
sg3655
(lp4095
g3
(g3669
g5
NtRp4096
(dp4097
g3659
Nsg3662
I01
sg3649
g3759
sg3655
(lp4098
g3652
asg3657
(lp4099
sbag4024
asg3657
(lp4100
sbasg3657
(lp4101
sbag4038
asg3657
(lp4102
sbasg4028
(lp4103
g3
(g3669
g5
NtRp4104
(dp4105
g3659
Nsg3662
I01
sg3649
g3718
sg3655
(lp4106
g3
(g3669
g5
NtRp4107
(dp4108
g3659
Nsg3662
I01
sg3649
g3722
sg3655
(lp4109
g3652
asg3657
(lp4110
sbag3
(g3669
g5
NtRp4111
(dp4112
g3659
Nsg3662
I01
sg3649
g3896
sg3655
(lp4113
g3
(g3669
g5
NtRp4114
(dp4115
g3659
Nsg3662
I01
sg3649
g3900
sg3655
(lp4116
g3
(g3669
g5
NtRp4117
(dp4118
g3659
Nsg3662
I01
sg3649
g3759
sg3655
(lp4119
g3652
asg3657
(lp4120
sbag4028
asg3657
(lp4121
sbasg3657
(lp4122
sbag4038
asg3657
(lp4123
sbasg3694
(lp4124
g3
(g3669
g5
NtRp4125
(dp4126
g3659
Nsg3662
I01
sg3649
g3718
sg3655
(lp4127
g3
(g3669
g5
NtRp4128
(dp4129
g3659
Nsg3662
I01
sg3649
g3722
sg3655
(lp4130
g3652
asg3657
(lp4131
sbag3
(g3669
g5
NtRp4132
(dp4133
g3659
Nsg3662
I01
sg3649
g3896
sg3655
(lp4134
g3
(g3669
g5
NtRp4135
(dp4136
g3659
Nsg3662
I01
sg3649
g3900
sg3655
(lp4137
g3
(g3669
g5
NtRp4138
(dp4139
g3659
Nsg3662
I01
sg3649
g3759
sg3655
(lp4140
g3652
asg3657
(lp4141
sbag3694
asg3657
(lp4142
sbasg3657
(lp4143
sbag3747
asg3657
(lp4144
sbasg3
(g3669
g5
NtRp4145
(dp4146
g3659
Nsg3662
I01
sg3649
g3672
sg3655
(lp4147
g3
(g3669
g5
NtRp4148
(dp4149
g3659
Nsg3662
I00
sg3649
g3676
sg3655
(lp4150
g3
(g3651
g5
NtRp4151
(dp4152
g3649
g3654
sg3655
(lp4153
sg3657
(lp4154
sg3659
I17
sg3660
g25
sg3662
I01
sbag4017
asg3657
(lp4155
sbasg3657
(lp4156
sb(lp4157
g3
(g3669
g5
NtRp4158
(dp4159
g3659
Nsg3662
I01
sg3649
g3718
sg3655
(lp4160
g4041
ag3
(g3669
g5
NtRp4161
(dp4162
g3659
Nsg3662
I01
sg3649
g3735
sg3655
(lp4163
g4041
ag3
(g3651
g5
NtRp4164
(dp4165
g3649
g3654
sg3655
(lp4166
sg3657
(lp4167
sg3659
I5
sg3660
g3672
sg3662
I01
sbag3
(g3669
g5
NtRp4168
(dp4169
g3659
Nsg3662
I00
sg3649
g3655
sg3655
(lp4170
g4041
ag4035
asg3657
(lp4171
sbasg3657
(lp4172
sbag4044
asg3657
(lp4173
sbasg3
(g3669
g5
NtRp4174
(dp4175
g3659
Nsg3662
I01
sg3649
g3773
sg3655
(lp4176
g4145
asg3657
(lp4177
sb(lp4178
g3
(g3669
g5
NtRp4179
(dp4180
g3659
Nsg3662
I01
sg3649
g3718
sg3655
(lp4181
g4044
ag3
(g3669
g5
NtRp4182
(dp4183
g3659
Nsg3662
I01
sg3649
g3735
sg3655
(lp4184
g4044
ag3
(g3651
g5
NtRp4185
(dp4186
g3649
g3654
sg3655
(lp4187
sg3657
(lp4188
sg3659
I3
sg3660
g3773
sg3662
I01
sbag3
(g3669
g5
NtRp4189
(dp4190
g3659
Nsg3662
I00
sg3649
g3655
sg3655
(lp4191
g4044
ag4158
asg3657
(lp4192
sbasg3657
(lp4193
sbag3727
asg3657
(lp4194
sbasg3
(g3669
g5
NtRp4195
(dp4196
g3659
Nsg3662
I00
sg3649
g3684
sg3655
(lp4197
g3
(g3651
g5
NtRp4198
(dp4199
g3649
g3654
sg3655
(lp4200
sg3657
(lp4201
sg3659
Nsg3660
I1
sg3662
I01
sbag3
(g3651
g5
NtRp4202
(dp4203
g3649
g3654
sg3655
(lp4204
sg3657
(lp4205
sg3659
Nsg3660
I10
sg3662
I01
sbag3
(g3651
g5
NtRp4206
(dp4207
g3649
g3654
sg3655
(lp4208
sg3657
(lp4209
sg3659
Nsg3660
I1
sg3662
I01
sbasg3657
(lp4210
(g3699
g3700
tp4211
asb(lp4212
g3
(g3669
g5
NtRp4213
(dp4214
g3659
Nsg3662
I01
sg3649
g3718
sg3655
(lp4215
g3
(g3669
g5
NtRp4216
(dp4217
g3659
Nsg3662
I01
sg3649
g3722
sg3655
(lp4218
g3
(g3669
g5
NtRp4219
(dp4220
g3659
Nsg3662
I01
sg3649
g3722
sg3655
(lp4221
g3
(g3669
g5
NtRp4222
(dp4223
g3659
Nsg3662
I01
sg3649
g3722
sg3655
(lp4224
g3727
asg3657
(lp4225
sbasg3657
(lp4226
sbasg3657
(lp4227
sbag3
(g3669
g5
NtRp4228
(dp4229
g3659
Nsg3662
I00
sg3649
g3684
sg3655
(lp4230
g4198
ag4202
ag4206
asg3657
(lp4231
(lp4232
g3756
ag3
(g3669
g5
NtRp4233
(dp4234
g3659
Nsg3662
I01
sg3649
g3759
sg3655
(lp4235
g4216
asg3657
(lp4236
sbaa(g3699
g3762
tp4237
asbag4219
asg3657
(lp4238
sbasg4198
(lp4239
g3
(g3669
g5
NtRp4240
(dp4241
g3659
Nsg3662
I01
sg3649
g3718
sg3655
(lp4242
g3
(g3669
g5
NtRp4243
(dp4244
g3659
Nsg3662
I01
sg3649
g3722
sg3655
(lp4245
g3652
asg3657
(lp4246
sbag3
(g3669
g5
NtRp4247
(dp4248
g3659
Nsg3662
I01
sg3649
g3896
sg3655
(lp4249
g3
(g3669
g5
NtRp4250
(dp4251
g3659
Nsg3662
I01
sg3649
g3900
sg3655
(lp4252
g3
(g3669
g5
NtRp4253
(dp4254
g3659
Nsg3662
I01
sg3649
g3759
sg3655
(lp4255
g3652
asg3657
(lp4256
sbag4198
asg3657
(lp4257
sbasg3657
(lp4258
sbag4216
asg3657
(lp4259
sbasg3
(g3669
g5
NtRp4260
(dp4261
g3659
I6
sg3662
I00
sg3649
S'dict'
p4262
sg3655
(lp4263
sg3657
(lp4264
(lp4265
g23
ag3988
aa(lp4266
g31
ag3
(g3669
g5
NtRp4267
(dp4268
g3659
Nsg3662
I01
sg3649
g3773
sg3655
(lp4269
g3
(g3669
g5
NtRp4270
(dp4271
g3659
Nsg3662
I01
sg3649
g3672
sg3655
(lp4272
g3
(g3669
g5
NtRp4273
(dp4274
g3659
Nsg3662
I00
sg3649
g3676
sg3655
(lp4275
g3
(g3651
g5
NtRp4276
(dp4277
g3649
g3654
sg3655
(lp4278
sg3657
(lp4279
sg3659
I16
sg3660
g31
sg3662
I01
sbag4195
asg3657
(lp4280
sbasg3657
(lp4281
sbasg3657
(lp4282
sbaa(lp4283
g25
ag4174
aa(lp4284
g29
ag3865
aa(lp4285
S'n_jobs'
p4286
ag3
(g3651
g5
NtRp4287
(dp4288
g3649
g3654
sg3655
(lp4289
sg3657
(lp4290
sg3659
Nsg3660
I4
sg3662
I01
sbaa(lp4291
g27
ag3771
aasb(lp4292
g3
(g3669
g5
NtRp4293
(dp4294
g3659
Nsg3662
I01
sg3649
g3718
sg3655
(lp4295
g3727
ag3
(g3669
g5
NtRp4296
(dp4297
g3659
Nsg3662
I01
sg3649
g3735
sg3655
(lp4298
g3727
ag3
(g3651
g5
NtRp4299
(dp4300
g3649
g3654
sg3655
(lp4301
sg3657
(lp4302
sg3659
I4
sg3660
g4262
sg3662
I01
sbasg3657
(lp4303
(lp4304
g23
ag3
(g3669
g5
NtRp4305
(dp4306
g3659
Nsg3662
I00
sg3649
g3655
sg3655
(lp4307
g3727
ag4001
asg3657
(lp4308
sbaa(lp4309
g31
ag3
(g3669
g5
NtRp4310
(dp4311
g3659
Nsg3662
I00
sg3649
g3655
sg3655
(lp4312
g3727
ag3
(g3669
g5
NtRp4313
(dp4314
g3659
Nsg3662
I01
sg3649
g3718
sg3655
(lp4315
g4222
ag3
(g3669
g5
NtRp4316
(dp4317
g3659
Nsg3662
I01
sg3649
g3735
sg3655
(lp4318
g4222
ag3
(g3651
g5
NtRp4319
(dp4320
g3649
g3654
sg3655
(lp4321
sg3657
(lp4322
sg3659
I3
sg3660
g3773
sg3662
I01
sbag3
(g3669
g5
NtRp4323
(dp4324
g3659
Nsg3662
I00
sg3649
g3655
sg3655
(lp4325
g4222
ag3
(g3669
g5
NtRp4326
(dp4327
g3659
Nsg3662
I01
sg3649
g3718
sg3655
(lp4328
g4219
ag3
(g3669
g5
NtRp4329
(dp4330
g3659
Nsg3662
I01
sg3649
g3735
sg3655
(lp4331
g4219
ag3
(g3651
g5
NtRp4332
(dp4333
g3649
g3654
sg3655
(lp4334
sg3657
(lp4335
sg3659
I5
sg3660
g3672
sg3662
I01
sbag3
(g3669
g5
NtRp4336
(dp4337
g3659
Nsg3662
I00
sg3649
g3655
sg3655
(lp4338
g4219
ag4213
asg3657
(lp4339
sbasg3657
(lp4340
sbag4222
asg3657
(lp4341
sbasg3657
(lp4342
sbasg3657
(lp4343
sbag3727
asg3657
(lp4344
sbasg3657
(lp4345
sbaa(lp4346
g25
ag3
(g3669
g5
NtRp4347
(dp4348
g3659
Nsg3662
I00
sg3649
g3655
sg3655
(lp4349
g3727
ag4179
asg3657
(lp4350
sbaa(lp4351
g29
ag3
(g3669
g5
NtRp4352
(dp4353
g3659
Nsg3662
I00
sg3649
g3655
sg3655
(lp4354
g3727
ag3870
asg3657
(lp4355
sbaa(lp4356
g4286
ag3
(g3669
g5
NtRp4357
(dp4358
g3659
Nsg3662
I00
sg3649
g3655
sg3655
(lp4359
g3727
ag3
(g3669
g5
NtRp4360
(dp4361
g3659
Nsg3662
I01
sg3649
g3718
sg3655
(lp4362
g3
(g3669
g5
NtRp4363
(dp4364
g3659
Nsg3662
I01
sg3649
g3722
sg3655
(lp4365
g3652
asg3657
(lp4366
sbag3
(g3669
g5
NtRp4367
(dp4368
g3659
Nsg3662
I01
sg3649
g3896
sg3655
(lp4369
g3
(g3669
g5
NtRp4370
(dp4371
g3659
Nsg3662
I01
sg3649
g3900
sg3655
(lp4372
g3
(g3669
g5
NtRp4373
(dp4374
g3659
Nsg3662
I01
sg3649
g3759
sg3655
(lp4375
g3652
asg3657
(lp4376
sbag4287
asg3657
(lp4377
sbasg3657
(lp4378
sbag3727
asg3657
(lp4379
sbasg3657
(lp4380
sbaa(lp4381
g27
ag3
(g3669
g5
NtRp4382
(dp4383
g3659
Nsg3662
I00
sg3649
g3655
sg3655
(lp4384
g3727
ag3777
asg3657
(lp4385
sbaasbag3652
asg3657
(lp4386
sbasg4202
(lp4387
g3
(g3669
g5
NtRp4388
(dp4389
g3659
Nsg3662
I01
sg3649
g3718
sg3655
(lp4390
g3
(g3669
g5
NtRp4391
(dp4392
g3659
Nsg3662
I01
sg3649
g3722
sg3655
(lp4393
g3652
asg3657
(lp4394
sbag3
(g3669
g5
NtRp4395
(dp4396
g3659
Nsg3662
I01
sg3649
g3896
sg3655
(lp4397
g3
(g3669
g5
NtRp4398
(dp4399
g3659
Nsg3662
I01
sg3649
g3900
sg3655
(lp4400
g3
(g3669
g5
NtRp4401
(dp4402
g3659
Nsg3662
I01
sg3649
g3759
sg3655
(lp4403
g3652
asg3657
(lp4404
sbag4202
asg3657
(lp4405
sbasg3657
(lp4406
sbag4216
asg3657
(lp4407
sbasg4206
(lp4408
g3
(g3669
g5
NtRp4409
(dp4410
g3659
Nsg3662
I01
sg3649
g3718
sg3655
(lp4411
g3
(g3669
g5
NtRp4412
(dp4413
g3659
Nsg3662
I01
sg3649
g3722
sg3655
(lp4414
g3652
asg3657
(lp4415
sbag3
(g3669
g5
NtRp4416
(dp4417
g3659
Nsg3662
I01
sg3649
g3896
sg3655
(lp4418
g3
(g3669
g5
NtRp4419
(dp4420
g3659
Nsg3662
I01
sg3649
g3900
sg3655
(lp4421
g3
(g3669
g5
NtRp4422
(dp4423
g3659
Nsg3662
I01
sg3649
g3759
sg3655
(lp4424
g3652
asg3657
(lp4425
sbag4206
asg3657
(lp4426
sbasg3657
(lp4427
sbag4216
asg3657
(lp4428
sbasg4270
(lp4429
g4326
asg4267
(lp4430
g4313
asg4287
(lp4431
g4360
asg3803
(lp4432
g3844
asg3806
(lp4433
g3
(g3669
g5
NtRp4434
(dp4435
g3659
Nsg3662
I01
sg3649
g3718
sg3655
(lp4436
g3
(g3669
g5
NtRp4437
(dp4438
g3659
Nsg3662
I01
sg3649
g3722
sg3655
(lp4439
g3652
asg3657
(lp4440
sbag3
(g3669
g5
NtRp4441
(dp4442
g3659
Nsg3662
I01
sg3649
g3896
sg3655
(lp4443
g3
(g3669
g5
NtRp4444
(dp4445
g3659
Nsg3662
I01
sg3649
g3900
sg3655
(lp4446
g3
(g3669
g5
NtRp4447
(dp4448
g3659
Nsg3662
I01
sg3649
g3759
sg3655
(lp4449
g3652
asg3657
(lp4450
sbag3806
asg3657
(lp4451
sbasg3657
(lp4452
sbag3847
asg3657
(lp4453
sbasg3690
(lp4454
g3
(g3669
g5
NtRp4455
(dp4456
g3659
Nsg3662
I01
sg3649
g3718
sg3655
(lp4457
g3
(g3669
g5
NtRp4458
(dp4459
g3659
Nsg3662
I01
sg3649
g3722
sg3655
(lp4460
g3652
asg3657
(lp4461
sbag3
(g3669
g5
NtRp4462
(dp4463
g3659
Nsg3662
I01
sg3649
g3896
sg3655
(lp4464
g3
(g3669
g5
NtRp4465
(dp4466
g3659
Nsg3662
I01
sg3649
g3900
sg3655
(lp4467
g3
(g3669
g5
NtRp4468
(dp4469
g3659
Nsg3662
I01
sg3649
g3759
sg3655
(lp4470
g3652
asg3657
(lp4471
sbag3690
asg3657
(lp4472
sbasg3657
(lp4473
sbag3747
asg3657
(lp4474
sbasg3810
(lp4475
g3
(g3669
g5
NtRp4476
(dp4477
g3659
Nsg3662
I01
sg3649
g3718
sg3655
(lp4478
g3
(g3669
g5
NtRp4479
(dp4480
g3659
Nsg3662
I01
sg3649
g3722
sg3655
(lp4481
g3652
asg3657
(lp4482
sbag3
(g3669
g5
NtRp4483
(dp4484
g3659
Nsg3662
I01
sg3649
g3896
sg3655
(lp4485
g3
(g3669
g5
NtRp4486
(dp4487
g3659
Nsg3662
I01
sg3649
g3900
sg3655
(lp4488
g3
(g3669
g5
NtRp4489
(dp4490
g3659
Nsg3662
I01
sg3649
g3759
sg3655
(lp4491
g3652
asg3657
(lp4492
sbag3810
asg3657
(lp4493
sbasg3657
(lp4494
sbag3847
asg3657
(lp4495
sbasg3682
(lp4496
g3744
asg3814
(lp4497
g3
(g3669
g5
NtRp4498
(dp4499
g3659
Nsg3662
I01
sg3649
g3718
sg3655
(lp4500
g3
(g3669
g5
NtRp4501
(dp4502
g3659
Nsg3662
I01
sg3649
g3722
sg3655
(lp4503
g3652
asg3657
(lp4504
sbag3
(g3669
g5
NtRp4505
(dp4506
g3659
Nsg3662
I01
sg3649
g3896
sg3655
(lp4507
g3
(g3669
g5
NtRp4508
(dp4509
g3659
Nsg3662
I01
sg3649
g3900
sg3655
(lp4510
g3
(g3669
g5
NtRp4511
(dp4512
g3659
Nsg3662
I01
sg3649
g3759
sg3655
(lp4513
g3652
asg3657
(lp4514
sbag3814
asg3657
(lp4515
sbasg3657
(lp4516
sbag3847
asg3657
(lp4517
sbassS'expr'
p4518
g4260
sS'idxs_memo'
p4519
(dp4520
g3670
g3720
sg3771
g3724
sg3793
g3826
sg3865
g3829
sg3686
g3890
sg3909
g3927
sg3913
g3950
sg3917
g3971
sg3988
g3930
sg4017
g4038
sg4020
g4065
sg4024
g4086
sg4028
g4107
sg3694
g4128
sg4145
g4041
sg4174
g4044
sg4195
g4216
sg4198
g4243
sg4260
g3727
sg4202
g4391
sg4206
g4412
sg4270
g4219
sg4267
g4222
sg4287
g4363
sg3803
g3847
sg3806
g4437
sg3690
g4458
sg3810
g4479
sg3682
g3747
sg3814
g4501
ssS'dfs_nodes'
p4521
(lp4522
g3994
ag3913
ag3917
ag3909
ag3991
ag3988
ag4276
ag4198
ag4202
ag4206
ag4195
ag4273
ag4270
ag4267
ag4151
ag4020
ag4024
ag4028
ag4017
ag4148
ag4145
ag4174
ag3799
ag3806
ag3810
ag3814
ag3803
ag3796
ag3793
ag3865
ag4287
ag3678
ag3686
ag3690
ag3694
ag3682
ag3674
ag3670
ag3771
ag4260
asS'params'
p4523
(dp4524
g23
g3909
sg25
g4017
sg27
g3682
sg29
g3803
sg31
g4195
ssS'v_expr'
p4525
g4293
sS'expr_idxs'
p4526
g3652
sbsg4518
g4260
sS'pass_expr_memo_ctrl'
p4527
I00
sg3699
g3705
sg44
Nsg4523
(dp4528
g23
g3909
sg25
g4017
sg27
g3682
sg29
g3803
sg31
g4195
ssS's_idxs_vals'
p4529
g3
(g3669
g5
NtRp4530
(dp4531
g3659
Nsg3662
I01
sg3649
g3655
sg3655
(lp4532
g3
(g3669
g5
NtRp4533
(dp4534
g3659
I5
sg3662
I00
sg3649
g4262
sg3655
(lp4535
sg3657
(lp4536
(lp4537
g23
ag3927
aa(lp4538
g31
ag4216
aa(lp4539
g25
ag4038
aa(lp4540
g29
ag3847
aa(lp4541
g27
ag3747
aasbag3
(g3669
g5
NtRp4542
(dp4543
g3659
I5
sg3662
I00
sg3649
g4262
sg3655
(lp4544
sg3657
(lp4545
(lp4546
g23
ag3935
aa(lp4547
g31
ag4228
aa(lp4548
g25
ag4050
aa(lp4549
g29
ag3851
aa(lp4550
g27
ag3751
aasbasg3657
(lp4551
sbsS'loss_target'
p4552
NsS'installed_rng'
p4553
I01
sS'fn'
p4554
cHPOlib.cv
main
p4555
sbs.